
./sos_task:     file format elf32-littlearm


Disassembly of section .text:

00008000 <_start>:
_start():
/home/jamesari/git/os/sp/sources/userspace/crt0.s:10
;@ startovaci symbol - vstupni bod z jadra OS do uzivatelskeho programu
;@ v podstate jen ihned zavola nejakou C funkci, nepotrebujeme nic tak kritickeho, abychom to vsechno museli psal v ASM
;@ jen _start vlastne ani neni funkce, takze by tento vstupni bod mel byt psany takto; rovnez je treba se ujistit, ze
;@ je tento symbol relokovany spravne na 0x8000 (tam OS ocekava, ze se nachazi vstupni bod)
_start:
    bl __crt0_run
    8000:	eb000017 	bl	8064 <__crt0_run>

00008004 <_hang>:
_hang():
/home/jamesari/git/os/sp/sources/userspace/crt0.s:13
    ;@ z funkce __crt0_run by se nemel proces uz vratit, ale kdyby neco, tak se zacyklime
_hang:
    b _hang
    8004:	eafffffe 	b	8004 <_hang>

00008008 <__crt0_init_bss>:
__crt0_init_bss():
/home/jamesari/git/os/sp/sources/userspace/crt0.c:10

extern unsigned int __bss_start;
extern unsigned int __bss_end;

void __crt0_init_bss()
{
    8008:	e52db004 	push	{fp}		; (str fp, [sp, #-4]!)
    800c:	e28db000 	add	fp, sp, #0
    8010:	e24dd00c 	sub	sp, sp, #12
/home/jamesari/git/os/sp/sources/userspace/crt0.c:11
    for (unsigned int* cur = &__bss_start; cur < &__bss_end; cur++)
    8014:	e59f3040 	ldr	r3, [pc, #64]	; 805c <__crt0_init_bss+0x54>
    8018:	e50b3008 	str	r3, [fp, #-8]
    801c:	ea000005 	b	8038 <__crt0_init_bss+0x30>
/home/jamesari/git/os/sp/sources/userspace/crt0.c:12 (discriminator 3)
        *cur = 0;
    8020:	e51b3008 	ldr	r3, [fp, #-8]
    8024:	e3a02000 	mov	r2, #0
    8028:	e5832000 	str	r2, [r3]
/home/jamesari/git/os/sp/sources/userspace/crt0.c:11 (discriminator 3)
    for (unsigned int* cur = &__bss_start; cur < &__bss_end; cur++)
    802c:	e51b3008 	ldr	r3, [fp, #-8]
    8030:	e2833004 	add	r3, r3, #4
    8034:	e50b3008 	str	r3, [fp, #-8]
/home/jamesari/git/os/sp/sources/userspace/crt0.c:11 (discriminator 1)
    8038:	e51b3008 	ldr	r3, [fp, #-8]
    803c:	e59f201c 	ldr	r2, [pc, #28]	; 8060 <__crt0_init_bss+0x58>
    8040:	e1530002 	cmp	r3, r2
    8044:	3afffff5 	bcc	8020 <__crt0_init_bss+0x18>
/home/jamesari/git/os/sp/sources/userspace/crt0.c:13
}
    8048:	e320f000 	nop	{0}
    804c:	e320f000 	nop	{0}
    8050:	e28bd000 	add	sp, fp, #0
    8054:	e49db004 	pop	{fp}		; (ldr fp, [sp], #4)
    8058:	e12fff1e 	bx	lr
    805c:	00009b68 	andeq	r9, r0, r8, ror #22
    8060:	00009b80 	andeq	r9, r0, r0, lsl #23

00008064 <__crt0_run>:
__crt0_run():
/home/jamesari/git/os/sp/sources/userspace/crt0.c:16

void __crt0_run()
{
    8064:	e92d4800 	push	{fp, lr}
    8068:	e28db004 	add	fp, sp, #4
    806c:	e24dd008 	sub	sp, sp, #8
/home/jamesari/git/os/sp/sources/userspace/crt0.c:18
    // inicializace .bss sekce (vynulovani)
    __crt0_init_bss();
    8070:	ebffffe4 	bl	8008 <__crt0_init_bss>
/home/jamesari/git/os/sp/sources/userspace/crt0.c:21

    // volani konstruktoru globalnich trid (C++)
    _cpp_startup();
    8074:	eb000040 	bl	817c <_cpp_startup>
/home/jamesari/git/os/sp/sources/userspace/crt0.c:26

    // volani funkce main
    // nebudeme se zde zabyvat predavanim parametru do funkce main
    // jinak by se mohly predavat napr. namapovane do virtualniho adr. prostoru a odkazem pres zasobnik (kam nam muze OS pushnout co chce)
    int result = main(0, 0);
    8078:	e3a01000 	mov	r1, #0
    807c:	e3a00000 	mov	r0, #0
    8080:	eb000089 	bl	82ac <main>
    8084:	e50b0008 	str	r0, [fp, #-8]
/home/jamesari/git/os/sp/sources/userspace/crt0.c:29

    // volani destruktoru globalnich trid (C++)
    _cpp_shutdown();
    8088:	eb000051 	bl	81d4 <_cpp_shutdown>
/home/jamesari/git/os/sp/sources/userspace/crt0.c:32

    // volani terminate() syscallu s navratovym kodem funkce main
    asm volatile("mov r0, %0" : : "r" (result));
    808c:	e51b3008 	ldr	r3, [fp, #-8]
    8090:	e1a00003 	mov	r0, r3
/home/jamesari/git/os/sp/sources/userspace/crt0.c:33
    asm volatile("svc #1");
    8094:	ef000001 	svc	0x00000001
/home/jamesari/git/os/sp/sources/userspace/crt0.c:34
}
    8098:	e320f000 	nop	{0}
    809c:	e24bd004 	sub	sp, fp, #4
    80a0:	e8bd8800 	pop	{fp, pc}

000080a4 <__cxa_guard_acquire>:
__cxa_guard_acquire():
/home/jamesari/git/os/sp/sources/userspace/cxxabi.cpp:11
	extern "C" int __cxa_guard_acquire (__guard *);
	extern "C" void __cxa_guard_release (__guard *);
	extern "C" void __cxa_guard_abort (__guard *);

	extern "C" int __cxa_guard_acquire (__guard *g)
	{
    80a4:	e52db004 	push	{fp}		; (str fp, [sp, #-4]!)
    80a8:	e28db000 	add	fp, sp, #0
    80ac:	e24dd00c 	sub	sp, sp, #12
    80b0:	e50b0008 	str	r0, [fp, #-8]
/home/jamesari/git/os/sp/sources/userspace/cxxabi.cpp:12
		return !*(char *)(g);
    80b4:	e51b3008 	ldr	r3, [fp, #-8]
    80b8:	e5d33000 	ldrb	r3, [r3]
    80bc:	e3530000 	cmp	r3, #0
    80c0:	03a03001 	moveq	r3, #1
    80c4:	13a03000 	movne	r3, #0
    80c8:	e6ef3073 	uxtb	r3, r3
/home/jamesari/git/os/sp/sources/userspace/cxxabi.cpp:13
	}
    80cc:	e1a00003 	mov	r0, r3
    80d0:	e28bd000 	add	sp, fp, #0
    80d4:	e49db004 	pop	{fp}		; (ldr fp, [sp], #4)
    80d8:	e12fff1e 	bx	lr

000080dc <__cxa_guard_release>:
__cxa_guard_release():
/home/jamesari/git/os/sp/sources/userspace/cxxabi.cpp:16

	extern "C" void __cxa_guard_release (__guard *g)
	{
    80dc:	e52db004 	push	{fp}		; (str fp, [sp, #-4]!)
    80e0:	e28db000 	add	fp, sp, #0
    80e4:	e24dd00c 	sub	sp, sp, #12
    80e8:	e50b0008 	str	r0, [fp, #-8]
/home/jamesari/git/os/sp/sources/userspace/cxxabi.cpp:17
		*(char *)g = 1;
    80ec:	e51b3008 	ldr	r3, [fp, #-8]
    80f0:	e3a02001 	mov	r2, #1
    80f4:	e5c32000 	strb	r2, [r3]
/home/jamesari/git/os/sp/sources/userspace/cxxabi.cpp:18
	}
    80f8:	e320f000 	nop	{0}
    80fc:	e28bd000 	add	sp, fp, #0
    8100:	e49db004 	pop	{fp}		; (ldr fp, [sp], #4)
    8104:	e12fff1e 	bx	lr

00008108 <__cxa_guard_abort>:
__cxa_guard_abort():
/home/jamesari/git/os/sp/sources/userspace/cxxabi.cpp:21

	extern "C" void __cxa_guard_abort (__guard *)
	{
    8108:	e52db004 	push	{fp}		; (str fp, [sp, #-4]!)
    810c:	e28db000 	add	fp, sp, #0
    8110:	e24dd00c 	sub	sp, sp, #12
    8114:	e50b0008 	str	r0, [fp, #-8]
/home/jamesari/git/os/sp/sources/userspace/cxxabi.cpp:23

	}
    8118:	e320f000 	nop	{0}
    811c:	e28bd000 	add	sp, fp, #0
    8120:	e49db004 	pop	{fp}		; (ldr fp, [sp], #4)
    8124:	e12fff1e 	bx	lr

00008128 <__dso_handle>:
__dso_handle():
/home/jamesari/git/os/sp/sources/userspace/cxxabi.cpp:27
}

extern "C" void __dso_handle()
{
    8128:	e52db004 	push	{fp}		; (str fp, [sp, #-4]!)
    812c:	e28db000 	add	fp, sp, #0
/home/jamesari/git/os/sp/sources/userspace/cxxabi.cpp:29
    // ignore dtors for now
}
    8130:	e320f000 	nop	{0}
    8134:	e28bd000 	add	sp, fp, #0
    8138:	e49db004 	pop	{fp}		; (ldr fp, [sp], #4)
    813c:	e12fff1e 	bx	lr

00008140 <__cxa_atexit>:
__cxa_atexit():
/home/jamesari/git/os/sp/sources/userspace/cxxabi.cpp:32

extern "C" void __cxa_atexit()
{
    8140:	e52db004 	push	{fp}		; (str fp, [sp, #-4]!)
    8144:	e28db000 	add	fp, sp, #0
/home/jamesari/git/os/sp/sources/userspace/cxxabi.cpp:34
    // ignore dtors for now
}
    8148:	e320f000 	nop	{0}
    814c:	e28bd000 	add	sp, fp, #0
    8150:	e49db004 	pop	{fp}		; (ldr fp, [sp], #4)
    8154:	e12fff1e 	bx	lr

00008158 <__cxa_pure_virtual>:
__cxa_pure_virtual():
/home/jamesari/git/os/sp/sources/userspace/cxxabi.cpp:37

extern "C" void __cxa_pure_virtual()
{
    8158:	e52db004 	push	{fp}		; (str fp, [sp, #-4]!)
    815c:	e28db000 	add	fp, sp, #0
/home/jamesari/git/os/sp/sources/userspace/cxxabi.cpp:39
    // pure virtual method called
}
    8160:	e320f000 	nop	{0}
    8164:	e28bd000 	add	sp, fp, #0
    8168:	e49db004 	pop	{fp}		; (ldr fp, [sp], #4)
    816c:	e12fff1e 	bx	lr

00008170 <__aeabi_unwind_cpp_pr1>:
__aeabi_unwind_cpp_pr1():
/home/jamesari/git/os/sp/sources/userspace/cxxabi.cpp:42

extern "C" void __aeabi_unwind_cpp_pr1()
{
    8170:	e52db004 	push	{fp}		; (str fp, [sp, #-4]!)
    8174:	e28db000 	add	fp, sp, #0
/home/jamesari/git/os/sp/sources/userspace/cxxabi.cpp:43 (discriminator 1)
	while (true)
    8178:	eafffffe 	b	8178 <__aeabi_unwind_cpp_pr1+0x8>

0000817c <_cpp_startup>:
_cpp_startup():
/home/jamesari/git/os/sp/sources/userspace/cxxabi.cpp:61
extern "C" dtor_ptr __DTOR_LIST__[0];
// konec pole destruktoru
extern "C" dtor_ptr __DTOR_END__[0];

extern "C" int _cpp_startup(void)
{
    817c:	e92d4800 	push	{fp, lr}
    8180:	e28db004 	add	fp, sp, #4
    8184:	e24dd008 	sub	sp, sp, #8
/home/jamesari/git/os/sp/sources/userspace/cxxabi.cpp:66
	ctor_ptr* fnptr;
	
	// zavolame konstruktory globalnich C++ trid
	// v poli __CTOR_LIST__ jsou ukazatele na vygenerovane stuby volani konstruktoru
	for (fnptr = __CTOR_LIST__; fnptr < __CTOR_END__; fnptr++)
    8188:	e59f303c 	ldr	r3, [pc, #60]	; 81cc <_cpp_startup+0x50>
    818c:	e50b3008 	str	r3, [fp, #-8]
/home/jamesari/git/os/sp/sources/userspace/cxxabi.cpp:66 (discriminator 3)
    8190:	e51b3008 	ldr	r3, [fp, #-8]
    8194:	e59f2034 	ldr	r2, [pc, #52]	; 81d0 <_cpp_startup+0x54>
    8198:	e1530002 	cmp	r3, r2
    819c:	2a000006 	bcs	81bc <_cpp_startup+0x40>
/home/jamesari/git/os/sp/sources/userspace/cxxabi.cpp:67 (discriminator 2)
		(*fnptr)();
    81a0:	e51b3008 	ldr	r3, [fp, #-8]
    81a4:	e5933000 	ldr	r3, [r3]
    81a8:	e12fff33 	blx	r3
/home/jamesari/git/os/sp/sources/userspace/cxxabi.cpp:66 (discriminator 2)
	for (fnptr = __CTOR_LIST__; fnptr < __CTOR_END__; fnptr++)
    81ac:	e51b3008 	ldr	r3, [fp, #-8]
    81b0:	e2833004 	add	r3, r3, #4
    81b4:	e50b3008 	str	r3, [fp, #-8]
    81b8:	eafffff4 	b	8190 <_cpp_startup+0x14>
/home/jamesari/git/os/sp/sources/userspace/cxxabi.cpp:69
	
	return 0;
    81bc:	e3a03000 	mov	r3, #0
/home/jamesari/git/os/sp/sources/userspace/cxxabi.cpp:70
}
    81c0:	e1a00003 	mov	r0, r3
    81c4:	e24bd004 	sub	sp, fp, #4
    81c8:	e8bd8800 	pop	{fp, pc}
    81cc:	00009b65 	andeq	r9, r0, r5, ror #22
    81d0:	00009b65 	andeq	r9, r0, r5, ror #22

000081d4 <_cpp_shutdown>:
_cpp_shutdown():
/home/jamesari/git/os/sp/sources/userspace/cxxabi.cpp:73

extern "C" int _cpp_shutdown(void)
{
    81d4:	e92d4800 	push	{fp, lr}
    81d8:	e28db004 	add	fp, sp, #4
    81dc:	e24dd008 	sub	sp, sp, #8
/home/jamesari/git/os/sp/sources/userspace/cxxabi.cpp:77
	dtor_ptr* fnptr;
	
	// zavolame destruktory globalnich C++ trid
	for (fnptr = __DTOR_LIST__; fnptr < __DTOR_END__; fnptr++)
    81e0:	e59f303c 	ldr	r3, [pc, #60]	; 8224 <_cpp_shutdown+0x50>
    81e4:	e50b3008 	str	r3, [fp, #-8]
/home/jamesari/git/os/sp/sources/userspace/cxxabi.cpp:77 (discriminator 3)
    81e8:	e51b3008 	ldr	r3, [fp, #-8]
    81ec:	e59f2034 	ldr	r2, [pc, #52]	; 8228 <_cpp_shutdown+0x54>
    81f0:	e1530002 	cmp	r3, r2
    81f4:	2a000006 	bcs	8214 <_cpp_shutdown+0x40>
/home/jamesari/git/os/sp/sources/userspace/cxxabi.cpp:78 (discriminator 2)
		(*fnptr)();
    81f8:	e51b3008 	ldr	r3, [fp, #-8]
    81fc:	e5933000 	ldr	r3, [r3]
    8200:	e12fff33 	blx	r3
/home/jamesari/git/os/sp/sources/userspace/cxxabi.cpp:77 (discriminator 2)
	for (fnptr = __DTOR_LIST__; fnptr < __DTOR_END__; fnptr++)
    8204:	e51b3008 	ldr	r3, [fp, #-8]
    8208:	e2833004 	add	r3, r3, #4
    820c:	e50b3008 	str	r3, [fp, #-8]
    8210:	eafffff4 	b	81e8 <_cpp_shutdown+0x14>
/home/jamesari/git/os/sp/sources/userspace/cxxabi.cpp:80
	
	return 0;
    8214:	e3a03000 	mov	r3, #0
/home/jamesari/git/os/sp/sources/userspace/cxxabi.cpp:81
}
    8218:	e1a00003 	mov	r0, r3
    821c:	e24bd004 	sub	sp, fp, #4
    8220:	e8bd8800 	pop	{fp, pc}
    8224:	00009b65 	andeq	r9, r0, r5, ror #22
    8228:	00009b65 	andeq	r9, r0, r5, ror #22

0000822c <_Z5blinkb>:
_Z5blinkb():
/home/jamesari/git/os/sp/sources/userspace/sos_task/main.cpp:23

uint32_t sos_led;
uint32_t button;

void blink(bool short_blink)
{
    822c:	e92d4800 	push	{fp, lr}
    8230:	e28db004 	add	fp, sp, #4
    8234:	e24dd008 	sub	sp, sp, #8
    8238:	e1a03000 	mov	r3, r0
    823c:	e54b3005 	strb	r3, [fp, #-5]
/home/jamesari/git/os/sp/sources/userspace/sos_task/main.cpp:24
	write(sos_led, "1", 1);
    8240:	e59f3058 	ldr	r3, [pc, #88]	; 82a0 <_Z5blinkb+0x74>
    8244:	e5933000 	ldr	r3, [r3]
    8248:	e3a02001 	mov	r2, #1
    824c:	e59f1050 	ldr	r1, [pc, #80]	; 82a4 <_Z5blinkb+0x78>
    8250:	e1a00003 	mov	r0, r3
    8254:	eb0000b1 	bl	8520 <_Z5writejPKcj>
/home/jamesari/git/os/sp/sources/userspace/sos_task/main.cpp:25
	sleep(short_blink ? 0x800 : 0x1000);
    8258:	e55b3005 	ldrb	r3, [fp, #-5]
    825c:	e3530000 	cmp	r3, #0
    8260:	0a000001 	beq	826c <_Z5blinkb+0x40>
/home/jamesari/git/os/sp/sources/userspace/sos_task/main.cpp:25 (discriminator 1)
    8264:	e3a03b02 	mov	r3, #2048	; 0x800
    8268:	ea000000 	b	8270 <_Z5blinkb+0x44>
/home/jamesari/git/os/sp/sources/userspace/sos_task/main.cpp:25 (discriminator 2)
    826c:	e3a03a01 	mov	r3, #4096	; 0x1000
/home/jamesari/git/os/sp/sources/userspace/sos_task/main.cpp:25 (discriminator 4)
    8270:	e3e01001 	mvn	r1, #1
    8274:	e1a00003 	mov	r0, r3
    8278:	eb000100 	bl	8680 <_Z5sleepjj>
/home/jamesari/git/os/sp/sources/userspace/sos_task/main.cpp:26 (discriminator 4)
	write(sos_led, "0", 1);
    827c:	e59f301c 	ldr	r3, [pc, #28]	; 82a0 <_Z5blinkb+0x74>
    8280:	e5933000 	ldr	r3, [r3]
    8284:	e3a02001 	mov	r2, #1
    8288:	e59f1018 	ldr	r1, [pc, #24]	; 82a8 <_Z5blinkb+0x7c>
    828c:	e1a00003 	mov	r0, r3
    8290:	eb0000a2 	bl	8520 <_Z5writejPKcj>
/home/jamesari/git/os/sp/sources/userspace/sos_task/main.cpp:27 (discriminator 4)
}
    8294:	e320f000 	nop	{0}
    8298:	e24bd004 	sub	sp, fp, #4
    829c:	e8bd8800 	pop	{fp, pc}
    82a0:	00009b68 	andeq	r9, r0, r8, ror #22
    82a4:	00009ad8 	ldrdeq	r9, [r0], -r8
    82a8:	00009adc 	ldrdeq	r9, [r0], -ip

000082ac <main>:
main():
/home/jamesari/git/os/sp/sources/userspace/sos_task/main.cpp:30

int main(int argc, char** argv)
{
    82ac:	e92d4800 	push	{fp, lr}
    82b0:	e28db004 	add	fp, sp, #4
    82b4:	e24dd010 	sub	sp, sp, #16
    82b8:	e50b0010 	str	r0, [fp, #-16]
    82bc:	e50b1014 	str	r1, [fp, #-20]	; 0xffffffec
/home/jamesari/git/os/sp/sources/userspace/sos_task/main.cpp:31
	sos_led = open("DEV:gpio/18", NFile_Open_Mode::Write_Only);
    82c0:	e3a01001 	mov	r1, #1
    82c4:	e59f0134 	ldr	r0, [pc, #308]	; 8400 <main+0x154>
    82c8:	eb00006f 	bl	848c <_Z4openPKc15NFile_Open_Mode>
    82cc:	e1a03000 	mov	r3, r0
    82d0:	e59f212c 	ldr	r2, [pc, #300]	; 8404 <main+0x158>
    82d4:	e5823000 	str	r3, [r2]
/home/jamesari/git/os/sp/sources/userspace/sos_task/main.cpp:32
	button = open("DEV:gpio/16", NFile_Open_Mode::Read_Only);
    82d8:	e3a01000 	mov	r1, #0
    82dc:	e59f0124 	ldr	r0, [pc, #292]	; 8408 <main+0x15c>
    82e0:	eb000069 	bl	848c <_Z4openPKc15NFile_Open_Mode>
    82e4:	e1a03000 	mov	r3, r0
    82e8:	e59f211c 	ldr	r2, [pc, #284]	; 840c <main+0x160>
    82ec:	e5823000 	str	r3, [r2]
/home/jamesari/git/os/sp/sources/userspace/sos_task/main.cpp:34

	NGPIO_Interrupt_Type irtype = NGPIO_Interrupt_Type::Rising_Edge;
    82f0:	e3a03000 	mov	r3, #0
    82f4:	e50b300c 	str	r3, [fp, #-12]
/home/jamesari/git/os/sp/sources/userspace/sos_task/main.cpp:35
	ioctl(button, NIOCtl_Operation::Enable_Event_Detection, &irtype);
    82f8:	e59f310c 	ldr	r3, [pc, #268]	; 840c <main+0x160>
    82fc:	e5933000 	ldr	r3, [r3]
    8300:	e24b200c 	sub	r2, fp, #12
    8304:	e3a01002 	mov	r1, #2
    8308:	e1a00003 	mov	r0, r3
    830c:	eb0000a2 	bl	859c <_Z5ioctlj16NIOCtl_OperationPv>
/home/jamesari/git/os/sp/sources/userspace/sos_task/main.cpp:37

	uint32_t logpipe = pipe("log", 32);
    8310:	e3a01020 	mov	r1, #32
    8314:	e59f00f4 	ldr	r0, [pc, #244]	; 8410 <main+0x164>
    8318:	eb000129 	bl	87c4 <_Z4pipePKcj>
    831c:	e50b0008 	str	r0, [fp, #-8]
/home/jamesari/git/os/sp/sources/userspace/sos_task/main.cpp:42 (discriminator 1)

	while (true)
	{
		// pockame na stisk klavesy
		wait(button, 1, 0x300);
    8320:	e59f30e4 	ldr	r3, [pc, #228]	; 840c <main+0x160>
    8324:	e5933000 	ldr	r3, [r3]
    8328:	e3a02c03 	mov	r2, #768	; 0x300
    832c:	e3a01001 	mov	r1, #1
    8330:	e1a00003 	mov	r0, r3
    8334:	eb0000bd 	bl	8630 <_Z4waitjjj>
/home/jamesari/git/os/sp/sources/userspace/sos_task/main.cpp:51 (discriminator 1)
		// 2) my mame deadline 0x300
		// 3) log task ma deadline 0x1000
		// 4) jiny task ma deadline 0x500
		// jiny task dostane prednost pred log taskem, a pokud nesplni v kratkem case svou ulohu, tento task prekroci deadline
		// TODO: inverzi priorit bychom docasne zvysili prioritu (zkratili deadline) log tasku, aby vyprazdnil pipe a my se mohli odblokovat co nejdrive
		write(logpipe, "SOS!", 5);
    8338:	e3a02005 	mov	r2, #5
    833c:	e59f10d0 	ldr	r1, [pc, #208]	; 8414 <main+0x168>
    8340:	e51b0008 	ldr	r0, [fp, #-8]
    8344:	eb000075 	bl	8520 <_Z5writejPKcj>
/home/jamesari/git/os/sp/sources/userspace/sos_task/main.cpp:53 (discriminator 1)

		blink(true);
    8348:	e3a00001 	mov	r0, #1
    834c:	ebffffb6 	bl	822c <_Z5blinkb>
/home/jamesari/git/os/sp/sources/userspace/sos_task/main.cpp:54 (discriminator 1)
		sleep(symbol_tick_delay);
    8350:	e3e01001 	mvn	r1, #1
    8354:	e3a00b01 	mov	r0, #1024	; 0x400
    8358:	eb0000c8 	bl	8680 <_Z5sleepjj>
/home/jamesari/git/os/sp/sources/userspace/sos_task/main.cpp:55 (discriminator 1)
		blink(true);
    835c:	e3a00001 	mov	r0, #1
    8360:	ebffffb1 	bl	822c <_Z5blinkb>
/home/jamesari/git/os/sp/sources/userspace/sos_task/main.cpp:56 (discriminator 1)
		sleep(symbol_tick_delay);
    8364:	e3e01001 	mvn	r1, #1
    8368:	e3a00b01 	mov	r0, #1024	; 0x400
    836c:	eb0000c3 	bl	8680 <_Z5sleepjj>
/home/jamesari/git/os/sp/sources/userspace/sos_task/main.cpp:57 (discriminator 1)
		blink(true);
    8370:	e3a00001 	mov	r0, #1
    8374:	ebffffac 	bl	822c <_Z5blinkb>
/home/jamesari/git/os/sp/sources/userspace/sos_task/main.cpp:59 (discriminator 1)

		sleep(char_tick_delay);
    8378:	e3e01001 	mvn	r1, #1
    837c:	e3a00a01 	mov	r0, #4096	; 0x1000
    8380:	eb0000be 	bl	8680 <_Z5sleepjj>
/home/jamesari/git/os/sp/sources/userspace/sos_task/main.cpp:61 (discriminator 1)

		blink(false);
    8384:	e3a00000 	mov	r0, #0
    8388:	ebffffa7 	bl	822c <_Z5blinkb>
/home/jamesari/git/os/sp/sources/userspace/sos_task/main.cpp:62 (discriminator 1)
		sleep(symbol_tick_delay);
    838c:	e3e01001 	mvn	r1, #1
    8390:	e3a00b01 	mov	r0, #1024	; 0x400
    8394:	eb0000b9 	bl	8680 <_Z5sleepjj>
/home/jamesari/git/os/sp/sources/userspace/sos_task/main.cpp:63 (discriminator 1)
		blink(false);
    8398:	e3a00000 	mov	r0, #0
    839c:	ebffffa2 	bl	822c <_Z5blinkb>
/home/jamesari/git/os/sp/sources/userspace/sos_task/main.cpp:64 (discriminator 1)
		sleep(symbol_tick_delay);
    83a0:	e3e01001 	mvn	r1, #1
    83a4:	e3a00b01 	mov	r0, #1024	; 0x400
    83a8:	eb0000b4 	bl	8680 <_Z5sleepjj>
/home/jamesari/git/os/sp/sources/userspace/sos_task/main.cpp:65 (discriminator 1)
		blink(false);
    83ac:	e3a00000 	mov	r0, #0
    83b0:	ebffff9d 	bl	822c <_Z5blinkb>
/home/jamesari/git/os/sp/sources/userspace/sos_task/main.cpp:66 (discriminator 1)
		sleep(symbol_tick_delay);
    83b4:	e3e01001 	mvn	r1, #1
    83b8:	e3a00b01 	mov	r0, #1024	; 0x400
    83bc:	eb0000af 	bl	8680 <_Z5sleepjj>
/home/jamesari/git/os/sp/sources/userspace/sos_task/main.cpp:68 (discriminator 1)

		sleep(char_tick_delay);
    83c0:	e3e01001 	mvn	r1, #1
    83c4:	e3a00a01 	mov	r0, #4096	; 0x1000
    83c8:	eb0000ac 	bl	8680 <_Z5sleepjj>
/home/jamesari/git/os/sp/sources/userspace/sos_task/main.cpp:70 (discriminator 1)

		blink(true);
    83cc:	e3a00001 	mov	r0, #1
    83d0:	ebffff95 	bl	822c <_Z5blinkb>
/home/jamesari/git/os/sp/sources/userspace/sos_task/main.cpp:71 (discriminator 1)
		sleep(symbol_tick_delay);
    83d4:	e3e01001 	mvn	r1, #1
    83d8:	e3a00b01 	mov	r0, #1024	; 0x400
    83dc:	eb0000a7 	bl	8680 <_Z5sleepjj>
/home/jamesari/git/os/sp/sources/userspace/sos_task/main.cpp:72 (discriminator 1)
		blink(true);
    83e0:	e3a00001 	mov	r0, #1
    83e4:	ebffff90 	bl	822c <_Z5blinkb>
/home/jamesari/git/os/sp/sources/userspace/sos_task/main.cpp:73 (discriminator 1)
		sleep(symbol_tick_delay);
    83e8:	e3e01001 	mvn	r1, #1
    83ec:	e3a00b01 	mov	r0, #1024	; 0x400
    83f0:	eb0000a2 	bl	8680 <_Z5sleepjj>
/home/jamesari/git/os/sp/sources/userspace/sos_task/main.cpp:74 (discriminator 1)
		blink(true);
    83f4:	e3a00001 	mov	r0, #1
    83f8:	ebffff8b 	bl	822c <_Z5blinkb>
/home/jamesari/git/os/sp/sources/userspace/sos_task/main.cpp:42 (discriminator 1)
		wait(button, 1, 0x300);
    83fc:	eaffffc7 	b	8320 <main+0x74>
    8400:	00009ae0 	andeq	r9, r0, r0, ror #21
    8404:	00009b68 	andeq	r9, r0, r8, ror #22
    8408:	00009aec 	andeq	r9, r0, ip, ror #21
    840c:	00009b6c 	andeq	r9, r0, ip, ror #22
    8410:	00009af8 	strdeq	r9, [r0], -r8
    8414:	00009afc 	strdeq	r9, [r0], -ip

00008418 <_Z6getpidv>:
_Z6getpidv():
/home/jamesari/git/os/sp/sources/stdlib/src/stdfile.cpp:5
#include <stdfile.h>
#include <stdstring.h>

uint32_t getpid()
{
    8418:	e52db004 	push	{fp}		; (str fp, [sp, #-4]!)
    841c:	e28db000 	add	fp, sp, #0
    8420:	e24dd00c 	sub	sp, sp, #12
/home/jamesari/git/os/sp/sources/stdlib/src/stdfile.cpp:8
    uint32_t pid;

    asm volatile("swi 0");
    8424:	ef000000 	svc	0x00000000
/home/jamesari/git/os/sp/sources/stdlib/src/stdfile.cpp:9
    asm volatile("mov %0, r0" : "=r" (pid));
    8428:	e1a03000 	mov	r3, r0
    842c:	e50b3008 	str	r3, [fp, #-8]
/home/jamesari/git/os/sp/sources/stdlib/src/stdfile.cpp:11

    return pid;
    8430:	e51b3008 	ldr	r3, [fp, #-8]
/home/jamesari/git/os/sp/sources/stdlib/src/stdfile.cpp:12
}
    8434:	e1a00003 	mov	r0, r3
    8438:	e28bd000 	add	sp, fp, #0
    843c:	e49db004 	pop	{fp}		; (ldr fp, [sp], #4)
    8440:	e12fff1e 	bx	lr

00008444 <_Z9terminatei>:
_Z9terminatei():
/home/jamesari/git/os/sp/sources/stdlib/src/stdfile.cpp:15

void terminate(int exitcode)
{
    8444:	e52db004 	push	{fp}		; (str fp, [sp, #-4]!)
    8448:	e28db000 	add	fp, sp, #0
    844c:	e24dd00c 	sub	sp, sp, #12
    8450:	e50b0008 	str	r0, [fp, #-8]
/home/jamesari/git/os/sp/sources/stdlib/src/stdfile.cpp:16
    asm volatile("mov r0, %0" : : "r" (exitcode));
    8454:	e51b3008 	ldr	r3, [fp, #-8]
    8458:	e1a00003 	mov	r0, r3
/home/jamesari/git/os/sp/sources/stdlib/src/stdfile.cpp:17
    asm volatile("swi 1");
    845c:	ef000001 	svc	0x00000001
/home/jamesari/git/os/sp/sources/stdlib/src/stdfile.cpp:18
}
    8460:	e320f000 	nop	{0}
    8464:	e28bd000 	add	sp, fp, #0
    8468:	e49db004 	pop	{fp}		; (ldr fp, [sp], #4)
    846c:	e12fff1e 	bx	lr

00008470 <_Z11sched_yieldv>:
_Z11sched_yieldv():
/home/jamesari/git/os/sp/sources/stdlib/src/stdfile.cpp:21

void sched_yield()
{
    8470:	e52db004 	push	{fp}		; (str fp, [sp, #-4]!)
    8474:	e28db000 	add	fp, sp, #0
/home/jamesari/git/os/sp/sources/stdlib/src/stdfile.cpp:22
    asm volatile("swi 2");
    8478:	ef000002 	svc	0x00000002
/home/jamesari/git/os/sp/sources/stdlib/src/stdfile.cpp:23
}
    847c:	e320f000 	nop	{0}
    8480:	e28bd000 	add	sp, fp, #0
    8484:	e49db004 	pop	{fp}		; (ldr fp, [sp], #4)
    8488:	e12fff1e 	bx	lr

0000848c <_Z4openPKc15NFile_Open_Mode>:
_Z4openPKc15NFile_Open_Mode():
/home/jamesari/git/os/sp/sources/stdlib/src/stdfile.cpp:26

uint32_t open(const char* filename, NFile_Open_Mode mode)
{
    848c:	e52db004 	push	{fp}		; (str fp, [sp, #-4]!)
    8490:	e28db000 	add	fp, sp, #0
    8494:	e24dd014 	sub	sp, sp, #20
    8498:	e50b0010 	str	r0, [fp, #-16]
    849c:	e50b1014 	str	r1, [fp, #-20]	; 0xffffffec
/home/jamesari/git/os/sp/sources/stdlib/src/stdfile.cpp:29
    uint32_t file;

    asm volatile("mov r0, %0" : : "r" (filename));
    84a0:	e51b3010 	ldr	r3, [fp, #-16]
    84a4:	e1a00003 	mov	r0, r3
/home/jamesari/git/os/sp/sources/stdlib/src/stdfile.cpp:30
    asm volatile("mov r1, %0" : : "r" (mode));
    84a8:	e51b3014 	ldr	r3, [fp, #-20]	; 0xffffffec
    84ac:	e1a01003 	mov	r1, r3
/home/jamesari/git/os/sp/sources/stdlib/src/stdfile.cpp:31
    asm volatile("swi 64");
    84b0:	ef000040 	svc	0x00000040
/home/jamesari/git/os/sp/sources/stdlib/src/stdfile.cpp:32
    asm volatile("mov %0, r0" : "=r" (file));
    84b4:	e1a03000 	mov	r3, r0
    84b8:	e50b3008 	str	r3, [fp, #-8]
/home/jamesari/git/os/sp/sources/stdlib/src/stdfile.cpp:34

    return file;
    84bc:	e51b3008 	ldr	r3, [fp, #-8]
/home/jamesari/git/os/sp/sources/stdlib/src/stdfile.cpp:35
}
    84c0:	e1a00003 	mov	r0, r3
    84c4:	e28bd000 	add	sp, fp, #0
    84c8:	e49db004 	pop	{fp}		; (ldr fp, [sp], #4)
    84cc:	e12fff1e 	bx	lr

000084d0 <_Z4readjPcj>:
_Z4readjPcj():
/home/jamesari/git/os/sp/sources/stdlib/src/stdfile.cpp:38

uint32_t read(uint32_t file, char* const buffer, uint32_t size)
{
    84d0:	e52db004 	push	{fp}		; (str fp, [sp, #-4]!)
    84d4:	e28db000 	add	fp, sp, #0
    84d8:	e24dd01c 	sub	sp, sp, #28
    84dc:	e50b0010 	str	r0, [fp, #-16]
    84e0:	e50b1014 	str	r1, [fp, #-20]	; 0xffffffec
    84e4:	e50b2018 	str	r2, [fp, #-24]	; 0xffffffe8
/home/jamesari/git/os/sp/sources/stdlib/src/stdfile.cpp:41
    uint32_t rdnum;

    asm volatile("mov r0, %0" : : "r" (file));
    84e8:	e51b3010 	ldr	r3, [fp, #-16]
    84ec:	e1a00003 	mov	r0, r3
/home/jamesari/git/os/sp/sources/stdlib/src/stdfile.cpp:42
    asm volatile("mov r1, %0" : : "r" (buffer));
    84f0:	e51b3014 	ldr	r3, [fp, #-20]	; 0xffffffec
    84f4:	e1a01003 	mov	r1, r3
/home/jamesari/git/os/sp/sources/stdlib/src/stdfile.cpp:43
    asm volatile("mov r2, %0" : : "r" (size));
    84f8:	e51b3018 	ldr	r3, [fp, #-24]	; 0xffffffe8
    84fc:	e1a02003 	mov	r2, r3
/home/jamesari/git/os/sp/sources/stdlib/src/stdfile.cpp:44
    asm volatile("swi 65");
    8500:	ef000041 	svc	0x00000041
/home/jamesari/git/os/sp/sources/stdlib/src/stdfile.cpp:45
    asm volatile("mov %0, r0" : "=r" (rdnum));
    8504:	e1a03000 	mov	r3, r0
    8508:	e50b3008 	str	r3, [fp, #-8]
/home/jamesari/git/os/sp/sources/stdlib/src/stdfile.cpp:47

    return rdnum;
    850c:	e51b3008 	ldr	r3, [fp, #-8]
/home/jamesari/git/os/sp/sources/stdlib/src/stdfile.cpp:48
}
    8510:	e1a00003 	mov	r0, r3
    8514:	e28bd000 	add	sp, fp, #0
    8518:	e49db004 	pop	{fp}		; (ldr fp, [sp], #4)
    851c:	e12fff1e 	bx	lr

00008520 <_Z5writejPKcj>:
_Z5writejPKcj():
/home/jamesari/git/os/sp/sources/stdlib/src/stdfile.cpp:51

uint32_t write(uint32_t file, const char* buffer, uint32_t size)
{
    8520:	e52db004 	push	{fp}		; (str fp, [sp, #-4]!)
    8524:	e28db000 	add	fp, sp, #0
    8528:	e24dd01c 	sub	sp, sp, #28
    852c:	e50b0010 	str	r0, [fp, #-16]
    8530:	e50b1014 	str	r1, [fp, #-20]	; 0xffffffec
    8534:	e50b2018 	str	r2, [fp, #-24]	; 0xffffffe8
/home/jamesari/git/os/sp/sources/stdlib/src/stdfile.cpp:54
    uint32_t wrnum;

    asm volatile("mov r0, %0" : : "r" (file));
    8538:	e51b3010 	ldr	r3, [fp, #-16]
    853c:	e1a00003 	mov	r0, r3
/home/jamesari/git/os/sp/sources/stdlib/src/stdfile.cpp:55
    asm volatile("mov r1, %0" : : "r" (buffer));
    8540:	e51b3014 	ldr	r3, [fp, #-20]	; 0xffffffec
    8544:	e1a01003 	mov	r1, r3
/home/jamesari/git/os/sp/sources/stdlib/src/stdfile.cpp:56
    asm volatile("mov r2, %0" : : "r" (size));
    8548:	e51b3018 	ldr	r3, [fp, #-24]	; 0xffffffe8
    854c:	e1a02003 	mov	r2, r3
/home/jamesari/git/os/sp/sources/stdlib/src/stdfile.cpp:57
    asm volatile("swi 66");
    8550:	ef000042 	svc	0x00000042
/home/jamesari/git/os/sp/sources/stdlib/src/stdfile.cpp:58
    asm volatile("mov %0, r0" : "=r" (wrnum));
    8554:	e1a03000 	mov	r3, r0
    8558:	e50b3008 	str	r3, [fp, #-8]
/home/jamesari/git/os/sp/sources/stdlib/src/stdfile.cpp:60

    return wrnum;
    855c:	e51b3008 	ldr	r3, [fp, #-8]
/home/jamesari/git/os/sp/sources/stdlib/src/stdfile.cpp:61
}
    8560:	e1a00003 	mov	r0, r3
    8564:	e28bd000 	add	sp, fp, #0
    8568:	e49db004 	pop	{fp}		; (ldr fp, [sp], #4)
    856c:	e12fff1e 	bx	lr

00008570 <_Z5closej>:
_Z5closej():
/home/jamesari/git/os/sp/sources/stdlib/src/stdfile.cpp:64

void close(uint32_t file)
{
    8570:	e52db004 	push	{fp}		; (str fp, [sp, #-4]!)
    8574:	e28db000 	add	fp, sp, #0
    8578:	e24dd00c 	sub	sp, sp, #12
    857c:	e50b0008 	str	r0, [fp, #-8]
/home/jamesari/git/os/sp/sources/stdlib/src/stdfile.cpp:65
    asm volatile("mov r0, %0" : : "r" (file));
    8580:	e51b3008 	ldr	r3, [fp, #-8]
    8584:	e1a00003 	mov	r0, r3
/home/jamesari/git/os/sp/sources/stdlib/src/stdfile.cpp:66
    asm volatile("swi 67");
    8588:	ef000043 	svc	0x00000043
/home/jamesari/git/os/sp/sources/stdlib/src/stdfile.cpp:67
}
    858c:	e320f000 	nop	{0}
    8590:	e28bd000 	add	sp, fp, #0
    8594:	e49db004 	pop	{fp}		; (ldr fp, [sp], #4)
    8598:	e12fff1e 	bx	lr

0000859c <_Z5ioctlj16NIOCtl_OperationPv>:
_Z5ioctlj16NIOCtl_OperationPv():
/home/jamesari/git/os/sp/sources/stdlib/src/stdfile.cpp:70

uint32_t ioctl(uint32_t file, NIOCtl_Operation operation, void* param)
{
    859c:	e52db004 	push	{fp}		; (str fp, [sp, #-4]!)
    85a0:	e28db000 	add	fp, sp, #0
    85a4:	e24dd01c 	sub	sp, sp, #28
    85a8:	e50b0010 	str	r0, [fp, #-16]
    85ac:	e50b1014 	str	r1, [fp, #-20]	; 0xffffffec
    85b0:	e50b2018 	str	r2, [fp, #-24]	; 0xffffffe8
/home/jamesari/git/os/sp/sources/stdlib/src/stdfile.cpp:73
    uint32_t retcode;

    asm volatile("mov r0, %0" : : "r" (file));
    85b4:	e51b3010 	ldr	r3, [fp, #-16]
    85b8:	e1a00003 	mov	r0, r3
/home/jamesari/git/os/sp/sources/stdlib/src/stdfile.cpp:74
    asm volatile("mov r1, %0" : : "r" (operation));
    85bc:	e51b3014 	ldr	r3, [fp, #-20]	; 0xffffffec
    85c0:	e1a01003 	mov	r1, r3
/home/jamesari/git/os/sp/sources/stdlib/src/stdfile.cpp:75
    asm volatile("mov r2, %0" : : "r" (param));
    85c4:	e51b3018 	ldr	r3, [fp, #-24]	; 0xffffffe8
    85c8:	e1a02003 	mov	r2, r3
/home/jamesari/git/os/sp/sources/stdlib/src/stdfile.cpp:76
    asm volatile("swi 68");
    85cc:	ef000044 	svc	0x00000044
/home/jamesari/git/os/sp/sources/stdlib/src/stdfile.cpp:77
    asm volatile("mov %0, r0" : "=r" (retcode));
    85d0:	e1a03000 	mov	r3, r0
    85d4:	e50b3008 	str	r3, [fp, #-8]
/home/jamesari/git/os/sp/sources/stdlib/src/stdfile.cpp:79

    return retcode;
    85d8:	e51b3008 	ldr	r3, [fp, #-8]
/home/jamesari/git/os/sp/sources/stdlib/src/stdfile.cpp:80
}
    85dc:	e1a00003 	mov	r0, r3
    85e0:	e28bd000 	add	sp, fp, #0
    85e4:	e49db004 	pop	{fp}		; (ldr fp, [sp], #4)
    85e8:	e12fff1e 	bx	lr

000085ec <_Z6notifyjj>:
_Z6notifyjj():
/home/jamesari/git/os/sp/sources/stdlib/src/stdfile.cpp:83

uint32_t notify(uint32_t file, uint32_t count)
{
    85ec:	e52db004 	push	{fp}		; (str fp, [sp, #-4]!)
    85f0:	e28db000 	add	fp, sp, #0
    85f4:	e24dd014 	sub	sp, sp, #20
    85f8:	e50b0010 	str	r0, [fp, #-16]
    85fc:	e50b1014 	str	r1, [fp, #-20]	; 0xffffffec
/home/jamesari/git/os/sp/sources/stdlib/src/stdfile.cpp:86
    uint32_t retcnt;

    asm volatile("mov r0, %0" : : "r" (file));
    8600:	e51b3010 	ldr	r3, [fp, #-16]
    8604:	e1a00003 	mov	r0, r3
/home/jamesari/git/os/sp/sources/stdlib/src/stdfile.cpp:87
    asm volatile("mov r1, %0" : : "r" (count));
    8608:	e51b3014 	ldr	r3, [fp, #-20]	; 0xffffffec
    860c:	e1a01003 	mov	r1, r3
/home/jamesari/git/os/sp/sources/stdlib/src/stdfile.cpp:88
    asm volatile("swi 69");
    8610:	ef000045 	svc	0x00000045
/home/jamesari/git/os/sp/sources/stdlib/src/stdfile.cpp:89
    asm volatile("mov %0, r0" : "=r" (retcnt));
    8614:	e1a03000 	mov	r3, r0
    8618:	e50b3008 	str	r3, [fp, #-8]
/home/jamesari/git/os/sp/sources/stdlib/src/stdfile.cpp:91

    return retcnt;
    861c:	e51b3008 	ldr	r3, [fp, #-8]
/home/jamesari/git/os/sp/sources/stdlib/src/stdfile.cpp:92
}
    8620:	e1a00003 	mov	r0, r3
    8624:	e28bd000 	add	sp, fp, #0
    8628:	e49db004 	pop	{fp}		; (ldr fp, [sp], #4)
    862c:	e12fff1e 	bx	lr

00008630 <_Z4waitjjj>:
_Z4waitjjj():
/home/jamesari/git/os/sp/sources/stdlib/src/stdfile.cpp:95

NSWI_Result_Code wait(uint32_t file, uint32_t count, uint32_t notified_deadline)
{
    8630:	e52db004 	push	{fp}		; (str fp, [sp, #-4]!)
    8634:	e28db000 	add	fp, sp, #0
    8638:	e24dd01c 	sub	sp, sp, #28
    863c:	e50b0010 	str	r0, [fp, #-16]
    8640:	e50b1014 	str	r1, [fp, #-20]	; 0xffffffec
    8644:	e50b2018 	str	r2, [fp, #-24]	; 0xffffffe8
/home/jamesari/git/os/sp/sources/stdlib/src/stdfile.cpp:98
    NSWI_Result_Code retcode;

    asm volatile("mov r0, %0" : : "r" (file));
    8648:	e51b3010 	ldr	r3, [fp, #-16]
    864c:	e1a00003 	mov	r0, r3
/home/jamesari/git/os/sp/sources/stdlib/src/stdfile.cpp:99
    asm volatile("mov r1, %0" : : "r" (count));
    8650:	e51b3014 	ldr	r3, [fp, #-20]	; 0xffffffec
    8654:	e1a01003 	mov	r1, r3
/home/jamesari/git/os/sp/sources/stdlib/src/stdfile.cpp:100
    asm volatile("mov r2, %0" : : "r" (notified_deadline));
    8658:	e51b3018 	ldr	r3, [fp, #-24]	; 0xffffffe8
    865c:	e1a02003 	mov	r2, r3
/home/jamesari/git/os/sp/sources/stdlib/src/stdfile.cpp:101
    asm volatile("swi 70");
    8660:	ef000046 	svc	0x00000046
/home/jamesari/git/os/sp/sources/stdlib/src/stdfile.cpp:102
    asm volatile("mov %0, r0" : "=r" (retcode));
    8664:	e1a03000 	mov	r3, r0
    8668:	e50b3008 	str	r3, [fp, #-8]
/home/jamesari/git/os/sp/sources/stdlib/src/stdfile.cpp:104

    return retcode;
    866c:	e51b3008 	ldr	r3, [fp, #-8]
/home/jamesari/git/os/sp/sources/stdlib/src/stdfile.cpp:105
}
    8670:	e1a00003 	mov	r0, r3
    8674:	e28bd000 	add	sp, fp, #0
    8678:	e49db004 	pop	{fp}		; (ldr fp, [sp], #4)
    867c:	e12fff1e 	bx	lr

00008680 <_Z5sleepjj>:
_Z5sleepjj():
/home/jamesari/git/os/sp/sources/stdlib/src/stdfile.cpp:108

bool sleep(uint32_t ticks, uint32_t notified_deadline)
{
    8680:	e52db004 	push	{fp}		; (str fp, [sp, #-4]!)
    8684:	e28db000 	add	fp, sp, #0
    8688:	e24dd014 	sub	sp, sp, #20
    868c:	e50b0010 	str	r0, [fp, #-16]
    8690:	e50b1014 	str	r1, [fp, #-20]	; 0xffffffec
/home/jamesari/git/os/sp/sources/stdlib/src/stdfile.cpp:111
    uint32_t retcode;

    asm volatile("mov r0, %0" : : "r" (ticks));
    8694:	e51b3010 	ldr	r3, [fp, #-16]
    8698:	e1a00003 	mov	r0, r3
/home/jamesari/git/os/sp/sources/stdlib/src/stdfile.cpp:112
    asm volatile("mov r1, %0" : : "r" (notified_deadline));
    869c:	e51b3014 	ldr	r3, [fp, #-20]	; 0xffffffec
    86a0:	e1a01003 	mov	r1, r3
/home/jamesari/git/os/sp/sources/stdlib/src/stdfile.cpp:113
    asm volatile("swi 3");
    86a4:	ef000003 	svc	0x00000003
/home/jamesari/git/os/sp/sources/stdlib/src/stdfile.cpp:114
    asm volatile("mov %0, r0" : "=r" (retcode));
    86a8:	e1a03000 	mov	r3, r0
    86ac:	e50b3008 	str	r3, [fp, #-8]
/home/jamesari/git/os/sp/sources/stdlib/src/stdfile.cpp:116

    return retcode;
    86b0:	e51b3008 	ldr	r3, [fp, #-8]
    86b4:	e3530000 	cmp	r3, #0
    86b8:	13a03001 	movne	r3, #1
    86bc:	03a03000 	moveq	r3, #0
    86c0:	e6ef3073 	uxtb	r3, r3
/home/jamesari/git/os/sp/sources/stdlib/src/stdfile.cpp:117
}
    86c4:	e1a00003 	mov	r0, r3
    86c8:	e28bd000 	add	sp, fp, #0
    86cc:	e49db004 	pop	{fp}		; (ldr fp, [sp], #4)
    86d0:	e12fff1e 	bx	lr

000086d4 <_Z24get_active_process_countv>:
_Z24get_active_process_countv():
/home/jamesari/git/os/sp/sources/stdlib/src/stdfile.cpp:120

uint32_t get_active_process_count()
{
    86d4:	e52db004 	push	{fp}		; (str fp, [sp, #-4]!)
    86d8:	e28db000 	add	fp, sp, #0
    86dc:	e24dd00c 	sub	sp, sp, #12
/home/jamesari/git/os/sp/sources/stdlib/src/stdfile.cpp:121
    const NGet_Sched_Info_Type req = NGet_Sched_Info_Type::Active_Process_Count;
    86e0:	e3a03000 	mov	r3, #0
    86e4:	e50b3008 	str	r3, [fp, #-8]
/home/jamesari/git/os/sp/sources/stdlib/src/stdfile.cpp:124
    uint32_t retval;

    asm volatile("mov r0, %0" : : "r" (req));
    86e8:	e3a03000 	mov	r3, #0
    86ec:	e1a00003 	mov	r0, r3
/home/jamesari/git/os/sp/sources/stdlib/src/stdfile.cpp:125
    asm volatile("mov r1, %0" : : "r" (&retval));
    86f0:	e24b300c 	sub	r3, fp, #12
    86f4:	e1a01003 	mov	r1, r3
/home/jamesari/git/os/sp/sources/stdlib/src/stdfile.cpp:126
    asm volatile("swi 4");
    86f8:	ef000004 	svc	0x00000004
/home/jamesari/git/os/sp/sources/stdlib/src/stdfile.cpp:128

    return retval;
    86fc:	e51b300c 	ldr	r3, [fp, #-12]
/home/jamesari/git/os/sp/sources/stdlib/src/stdfile.cpp:129
}
    8700:	e1a00003 	mov	r0, r3
    8704:	e28bd000 	add	sp, fp, #0
    8708:	e49db004 	pop	{fp}		; (ldr fp, [sp], #4)
    870c:	e12fff1e 	bx	lr

00008710 <_Z14get_tick_countv>:
_Z14get_tick_countv():
/home/jamesari/git/os/sp/sources/stdlib/src/stdfile.cpp:132

uint32_t get_tick_count()
{
    8710:	e52db004 	push	{fp}		; (str fp, [sp, #-4]!)
    8714:	e28db000 	add	fp, sp, #0
    8718:	e24dd00c 	sub	sp, sp, #12
/home/jamesari/git/os/sp/sources/stdlib/src/stdfile.cpp:133
    const NGet_Sched_Info_Type req = NGet_Sched_Info_Type::Tick_Count;
    871c:	e3a03001 	mov	r3, #1
    8720:	e50b3008 	str	r3, [fp, #-8]
/home/jamesari/git/os/sp/sources/stdlib/src/stdfile.cpp:136
    uint32_t retval;

    asm volatile("mov r0, %0" : : "r" (req));
    8724:	e3a03001 	mov	r3, #1
    8728:	e1a00003 	mov	r0, r3
/home/jamesari/git/os/sp/sources/stdlib/src/stdfile.cpp:137
    asm volatile("mov r1, %0" : : "r" (&retval));
    872c:	e24b300c 	sub	r3, fp, #12
    8730:	e1a01003 	mov	r1, r3
/home/jamesari/git/os/sp/sources/stdlib/src/stdfile.cpp:138
    asm volatile("swi 4");
    8734:	ef000004 	svc	0x00000004
/home/jamesari/git/os/sp/sources/stdlib/src/stdfile.cpp:140

    return retval;
    8738:	e51b300c 	ldr	r3, [fp, #-12]
/home/jamesari/git/os/sp/sources/stdlib/src/stdfile.cpp:141
}
    873c:	e1a00003 	mov	r0, r3
    8740:	e28bd000 	add	sp, fp, #0
    8744:	e49db004 	pop	{fp}		; (ldr fp, [sp], #4)
    8748:	e12fff1e 	bx	lr

0000874c <_Z17set_task_deadlinej>:
_Z17set_task_deadlinej():
/home/jamesari/git/os/sp/sources/stdlib/src/stdfile.cpp:144

void set_task_deadline(uint32_t tick_count_required)
{
    874c:	e52db004 	push	{fp}		; (str fp, [sp, #-4]!)
    8750:	e28db000 	add	fp, sp, #0
    8754:	e24dd014 	sub	sp, sp, #20
    8758:	e50b0010 	str	r0, [fp, #-16]
/home/jamesari/git/os/sp/sources/stdlib/src/stdfile.cpp:145
    const NDeadline_Subservice req = NDeadline_Subservice::Set_Relative;
    875c:	e3a03000 	mov	r3, #0
    8760:	e50b3008 	str	r3, [fp, #-8]
/home/jamesari/git/os/sp/sources/stdlib/src/stdfile.cpp:147

    asm volatile("mov r0, %0" : : "r" (req));
    8764:	e3a03000 	mov	r3, #0
    8768:	e1a00003 	mov	r0, r3
/home/jamesari/git/os/sp/sources/stdlib/src/stdfile.cpp:148
    asm volatile("mov r1, %0" : : "r" (&tick_count_required));
    876c:	e24b3010 	sub	r3, fp, #16
    8770:	e1a01003 	mov	r1, r3
/home/jamesari/git/os/sp/sources/stdlib/src/stdfile.cpp:149
    asm volatile("swi 5");
    8774:	ef000005 	svc	0x00000005
/home/jamesari/git/os/sp/sources/stdlib/src/stdfile.cpp:150
}
    8778:	e320f000 	nop	{0}
    877c:	e28bd000 	add	sp, fp, #0
    8780:	e49db004 	pop	{fp}		; (ldr fp, [sp], #4)
    8784:	e12fff1e 	bx	lr

00008788 <_Z26get_task_ticks_to_deadlinev>:
_Z26get_task_ticks_to_deadlinev():
/home/jamesari/git/os/sp/sources/stdlib/src/stdfile.cpp:153

uint32_t get_task_ticks_to_deadline()
{
    8788:	e52db004 	push	{fp}		; (str fp, [sp, #-4]!)
    878c:	e28db000 	add	fp, sp, #0
    8790:	e24dd00c 	sub	sp, sp, #12
/home/jamesari/git/os/sp/sources/stdlib/src/stdfile.cpp:154
    const NDeadline_Subservice req = NDeadline_Subservice::Get_Remaining;
    8794:	e3a03001 	mov	r3, #1
    8798:	e50b3008 	str	r3, [fp, #-8]
/home/jamesari/git/os/sp/sources/stdlib/src/stdfile.cpp:157
    uint32_t ticks;

    asm volatile("mov r0, %0" : : "r" (req));
    879c:	e3a03001 	mov	r3, #1
    87a0:	e1a00003 	mov	r0, r3
/home/jamesari/git/os/sp/sources/stdlib/src/stdfile.cpp:158
    asm volatile("mov r1, %0" : : "r" (&ticks));
    87a4:	e24b300c 	sub	r3, fp, #12
    87a8:	e1a01003 	mov	r1, r3
/home/jamesari/git/os/sp/sources/stdlib/src/stdfile.cpp:159
    asm volatile("swi 5");
    87ac:	ef000005 	svc	0x00000005
/home/jamesari/git/os/sp/sources/stdlib/src/stdfile.cpp:161

    return ticks;
    87b0:	e51b300c 	ldr	r3, [fp, #-12]
/home/jamesari/git/os/sp/sources/stdlib/src/stdfile.cpp:162
}
    87b4:	e1a00003 	mov	r0, r3
    87b8:	e28bd000 	add	sp, fp, #0
    87bc:	e49db004 	pop	{fp}		; (ldr fp, [sp], #4)
    87c0:	e12fff1e 	bx	lr

000087c4 <_Z4pipePKcj>:
_Z4pipePKcj():
/home/jamesari/git/os/sp/sources/stdlib/src/stdfile.cpp:167

const char Pipe_File_Prefix[] = "SYS:pipe/";

uint32_t pipe(const char* name, uint32_t buf_size)
{
    87c4:	e92d4800 	push	{fp, lr}
    87c8:	e28db004 	add	fp, sp, #4
    87cc:	e24dd050 	sub	sp, sp, #80	; 0x50
    87d0:	e50b0050 	str	r0, [fp, #-80]	; 0xffffffb0
    87d4:	e50b1054 	str	r1, [fp, #-84]	; 0xffffffac
/home/jamesari/git/os/sp/sources/stdlib/src/stdfile.cpp:169
    char fname[64];
    strncpy(fname, Pipe_File_Prefix, sizeof(Pipe_File_Prefix));
    87d8:	e24b3048 	sub	r3, fp, #72	; 0x48
    87dc:	e3a0200a 	mov	r2, #10
    87e0:	e59f1088 	ldr	r1, [pc, #136]	; 8870 <_Z4pipePKcj+0xac>
    87e4:	e1a00003 	mov	r0, r3
    87e8:	eb0000a5 	bl	8a84 <_Z7strncpyPcPKci>
/home/jamesari/git/os/sp/sources/stdlib/src/stdfile.cpp:170
    strncpy(fname + sizeof(Pipe_File_Prefix), name, sizeof(fname) - sizeof(Pipe_File_Prefix) - 1);
    87ec:	e24b3048 	sub	r3, fp, #72	; 0x48
    87f0:	e283300a 	add	r3, r3, #10
    87f4:	e3a02035 	mov	r2, #53	; 0x35
    87f8:	e51b1050 	ldr	r1, [fp, #-80]	; 0xffffffb0
    87fc:	e1a00003 	mov	r0, r3
    8800:	eb00009f 	bl	8a84 <_Z7strncpyPcPKci>
/home/jamesari/git/os/sp/sources/stdlib/src/stdfile.cpp:172

    int ncur = sizeof(Pipe_File_Prefix) + strlen(name);
    8804:	e51b0050 	ldr	r0, [fp, #-80]	; 0xffffffb0
    8808:	eb0000f8 	bl	8bf0 <_Z6strlenPKc>
    880c:	e1a03000 	mov	r3, r0
    8810:	e283300a 	add	r3, r3, #10
    8814:	e50b3008 	str	r3, [fp, #-8]
/home/jamesari/git/os/sp/sources/stdlib/src/stdfile.cpp:174

    fname[ncur++] = '#';
    8818:	e51b3008 	ldr	r3, [fp, #-8]
    881c:	e2832001 	add	r2, r3, #1
    8820:	e50b2008 	str	r2, [fp, #-8]
    8824:	e24b2004 	sub	r2, fp, #4
    8828:	e0823003 	add	r3, r2, r3
    882c:	e3a02023 	mov	r2, #35	; 0x23
    8830:	e5432044 	strb	r2, [r3, #-68]	; 0xffffffbc
/home/jamesari/git/os/sp/sources/stdlib/src/stdfile.cpp:176

    itoa(buf_size, &fname[ncur], 10);
    8834:	e24b2048 	sub	r2, fp, #72	; 0x48
    8838:	e51b3008 	ldr	r3, [fp, #-8]
    883c:	e0823003 	add	r3, r2, r3
    8840:	e3a0200a 	mov	r2, #10
    8844:	e1a01003 	mov	r1, r3
    8848:	e51b0054 	ldr	r0, [fp, #-84]	; 0xffffffac
    884c:	eb000008 	bl	8874 <_Z4itoajPcj>
/home/jamesari/git/os/sp/sources/stdlib/src/stdfile.cpp:178

    return open(fname, NFile_Open_Mode::Read_Write);
    8850:	e24b3048 	sub	r3, fp, #72	; 0x48
    8854:	e3a01002 	mov	r1, #2
    8858:	e1a00003 	mov	r0, r3
    885c:	ebffff0a 	bl	848c <_Z4openPKc15NFile_Open_Mode>
    8860:	e1a03000 	mov	r3, r0
/home/jamesari/git/os/sp/sources/stdlib/src/stdfile.cpp:179
}
    8864:	e1a00003 	mov	r0, r3
    8868:	e24bd004 	sub	sp, fp, #4
    886c:	e8bd8800 	pop	{fp, pc}
    8870:	00009b44 	andeq	r9, r0, r4, asr #22

00008874 <_Z4itoajPcj>:
_Z4itoajPcj():
/home/jamesari/git/os/sp/sources/stdlib/src/stdstring.cpp:9
{
    const char CharConvArr[] = "0123456789ABCDEF";
}

void itoa(unsigned int input, char* output, unsigned int base)
{
    8874:	e92d4800 	push	{fp, lr}
    8878:	e28db004 	add	fp, sp, #4
    887c:	e24dd020 	sub	sp, sp, #32
    8880:	e50b0018 	str	r0, [fp, #-24]	; 0xffffffe8
    8884:	e50b101c 	str	r1, [fp, #-28]	; 0xffffffe4
    8888:	e50b2020 	str	r2, [fp, #-32]	; 0xffffffe0
/home/jamesari/git/os/sp/sources/stdlib/src/stdstring.cpp:10
	int i = 0;
    888c:	e3a03000 	mov	r3, #0
    8890:	e50b3008 	str	r3, [fp, #-8]
/home/jamesari/git/os/sp/sources/stdlib/src/stdstring.cpp:12

	while (input > 0)
    8894:	e51b3018 	ldr	r3, [fp, #-24]	; 0xffffffe8
    8898:	e3530000 	cmp	r3, #0
    889c:	0a000014 	beq	88f4 <_Z4itoajPcj+0x80>
/home/jamesari/git/os/sp/sources/stdlib/src/stdstring.cpp:14
	{
		output[i] = CharConvArr[input % base];
    88a0:	e51b3018 	ldr	r3, [fp, #-24]	; 0xffffffe8
    88a4:	e51b1020 	ldr	r1, [fp, #-32]	; 0xffffffe0
    88a8:	e1a00003 	mov	r0, r3
    88ac:	eb000462 	bl	9a3c <__aeabi_uidivmod>
    88b0:	e1a03001 	mov	r3, r1
    88b4:	e1a01003 	mov	r1, r3
    88b8:	e51b3008 	ldr	r3, [fp, #-8]
    88bc:	e51b201c 	ldr	r2, [fp, #-28]	; 0xffffffe4
    88c0:	e0823003 	add	r3, r2, r3
    88c4:	e59f2118 	ldr	r2, [pc, #280]	; 89e4 <_Z4itoajPcj+0x170>
    88c8:	e7d22001 	ldrb	r2, [r2, r1]
    88cc:	e5c32000 	strb	r2, [r3]
/home/jamesari/git/os/sp/sources/stdlib/src/stdstring.cpp:15
		input /= base;
    88d0:	e51b1020 	ldr	r1, [fp, #-32]	; 0xffffffe0
    88d4:	e51b0018 	ldr	r0, [fp, #-24]	; 0xffffffe8
    88d8:	eb0003dc 	bl	9850 <__udivsi3>
    88dc:	e1a03000 	mov	r3, r0
    88e0:	e50b3018 	str	r3, [fp, #-24]	; 0xffffffe8
/home/jamesari/git/os/sp/sources/stdlib/src/stdstring.cpp:16
		i++;
    88e4:	e51b3008 	ldr	r3, [fp, #-8]
    88e8:	e2833001 	add	r3, r3, #1
    88ec:	e50b3008 	str	r3, [fp, #-8]
/home/jamesari/git/os/sp/sources/stdlib/src/stdstring.cpp:12
	while (input > 0)
    88f0:	eaffffe7 	b	8894 <_Z4itoajPcj+0x20>
/home/jamesari/git/os/sp/sources/stdlib/src/stdstring.cpp:19
	}

    if (i == 0)
    88f4:	e51b3008 	ldr	r3, [fp, #-8]
    88f8:	e3530000 	cmp	r3, #0
    88fc:	1a000007 	bne	8920 <_Z4itoajPcj+0xac>
/home/jamesari/git/os/sp/sources/stdlib/src/stdstring.cpp:21
    {
        output[i] = CharConvArr[0];
    8900:	e51b3008 	ldr	r3, [fp, #-8]
    8904:	e51b201c 	ldr	r2, [fp, #-28]	; 0xffffffe4
    8908:	e0823003 	add	r3, r2, r3
    890c:	e3a02030 	mov	r2, #48	; 0x30
    8910:	e5c32000 	strb	r2, [r3]
/home/jamesari/git/os/sp/sources/stdlib/src/stdstring.cpp:22
        i++;
    8914:	e51b3008 	ldr	r3, [fp, #-8]
    8918:	e2833001 	add	r3, r3, #1
    891c:	e50b3008 	str	r3, [fp, #-8]
/home/jamesari/git/os/sp/sources/stdlib/src/stdstring.cpp:25
    }

	output[i] = '\0';
    8920:	e51b3008 	ldr	r3, [fp, #-8]
    8924:	e51b201c 	ldr	r2, [fp, #-28]	; 0xffffffe4
    8928:	e0823003 	add	r3, r2, r3
    892c:	e3a02000 	mov	r2, #0
    8930:	e5c32000 	strb	r2, [r3]
/home/jamesari/git/os/sp/sources/stdlib/src/stdstring.cpp:26
	i--;
    8934:	e51b3008 	ldr	r3, [fp, #-8]
    8938:	e2433001 	sub	r3, r3, #1
    893c:	e50b3008 	str	r3, [fp, #-8]
/home/jamesari/git/os/sp/sources/stdlib/src/stdstring.cpp:28

	for (int j = 0; j <= i/2; j++)
    8940:	e3a03000 	mov	r3, #0
    8944:	e50b300c 	str	r3, [fp, #-12]
/home/jamesari/git/os/sp/sources/stdlib/src/stdstring.cpp:28 (discriminator 3)
    8948:	e51b3008 	ldr	r3, [fp, #-8]
    894c:	e1a02fa3 	lsr	r2, r3, #31
    8950:	e0823003 	add	r3, r2, r3
    8954:	e1a030c3 	asr	r3, r3, #1
    8958:	e1a02003 	mov	r2, r3
    895c:	e51b300c 	ldr	r3, [fp, #-12]
    8960:	e1530002 	cmp	r3, r2
    8964:	ca00001b 	bgt	89d8 <_Z4itoajPcj+0x164>
/home/jamesari/git/os/sp/sources/stdlib/src/stdstring.cpp:30 (discriminator 2)
	{
		char c = output[i - j];
    8968:	e51b2008 	ldr	r2, [fp, #-8]
    896c:	e51b300c 	ldr	r3, [fp, #-12]
    8970:	e0423003 	sub	r3, r2, r3
    8974:	e1a02003 	mov	r2, r3
    8978:	e51b301c 	ldr	r3, [fp, #-28]	; 0xffffffe4
    897c:	e0833002 	add	r3, r3, r2
    8980:	e5d33000 	ldrb	r3, [r3]
    8984:	e54b300d 	strb	r3, [fp, #-13]
/home/jamesari/git/os/sp/sources/stdlib/src/stdstring.cpp:31 (discriminator 2)
		output[i - j] = output[j];
    8988:	e51b300c 	ldr	r3, [fp, #-12]
    898c:	e51b201c 	ldr	r2, [fp, #-28]	; 0xffffffe4
    8990:	e0822003 	add	r2, r2, r3
    8994:	e51b1008 	ldr	r1, [fp, #-8]
    8998:	e51b300c 	ldr	r3, [fp, #-12]
    899c:	e0413003 	sub	r3, r1, r3
    89a0:	e1a01003 	mov	r1, r3
    89a4:	e51b301c 	ldr	r3, [fp, #-28]	; 0xffffffe4
    89a8:	e0833001 	add	r3, r3, r1
    89ac:	e5d22000 	ldrb	r2, [r2]
    89b0:	e5c32000 	strb	r2, [r3]
/home/jamesari/git/os/sp/sources/stdlib/src/stdstring.cpp:32 (discriminator 2)
		output[j] = c;
    89b4:	e51b300c 	ldr	r3, [fp, #-12]
    89b8:	e51b201c 	ldr	r2, [fp, #-28]	; 0xffffffe4
    89bc:	e0823003 	add	r3, r2, r3
    89c0:	e55b200d 	ldrb	r2, [fp, #-13]
    89c4:	e5c32000 	strb	r2, [r3]
/home/jamesari/git/os/sp/sources/stdlib/src/stdstring.cpp:28 (discriminator 2)
	for (int j = 0; j <= i/2; j++)
    89c8:	e51b300c 	ldr	r3, [fp, #-12]
    89cc:	e2833001 	add	r3, r3, #1
    89d0:	e50b300c 	str	r3, [fp, #-12]
    89d4:	eaffffdb 	b	8948 <_Z4itoajPcj+0xd4>
/home/jamesari/git/os/sp/sources/stdlib/src/stdstring.cpp:34
	}
}
    89d8:	e320f000 	nop	{0}
    89dc:	e24bd004 	sub	sp, fp, #4
    89e0:	e8bd8800 	pop	{fp, pc}
    89e4:	00009b54 	andeq	r9, r0, r4, asr fp

000089e8 <_Z4atoiPKc>:
_Z4atoiPKc():
/home/jamesari/git/os/sp/sources/stdlib/src/stdstring.cpp:37

int atoi(const char* input)
{
    89e8:	e52db004 	push	{fp}		; (str fp, [sp, #-4]!)
    89ec:	e28db000 	add	fp, sp, #0
    89f0:	e24dd014 	sub	sp, sp, #20
    89f4:	e50b0010 	str	r0, [fp, #-16]
/home/jamesari/git/os/sp/sources/stdlib/src/stdstring.cpp:38
	int output = 0;
    89f8:	e3a03000 	mov	r3, #0
    89fc:	e50b3008 	str	r3, [fp, #-8]
/home/jamesari/git/os/sp/sources/stdlib/src/stdstring.cpp:40

	while (*input != '\0')
    8a00:	e51b3010 	ldr	r3, [fp, #-16]
    8a04:	e5d33000 	ldrb	r3, [r3]
    8a08:	e3530000 	cmp	r3, #0
    8a0c:	0a000017 	beq	8a70 <_Z4atoiPKc+0x88>
/home/jamesari/git/os/sp/sources/stdlib/src/stdstring.cpp:42
	{
		output *= 10;
    8a10:	e51b2008 	ldr	r2, [fp, #-8]
    8a14:	e1a03002 	mov	r3, r2
    8a18:	e1a03103 	lsl	r3, r3, #2
    8a1c:	e0833002 	add	r3, r3, r2
    8a20:	e1a03083 	lsl	r3, r3, #1
    8a24:	e50b3008 	str	r3, [fp, #-8]
/home/jamesari/git/os/sp/sources/stdlib/src/stdstring.cpp:43
		if (*input > '9' || *input < '0')
    8a28:	e51b3010 	ldr	r3, [fp, #-16]
    8a2c:	e5d33000 	ldrb	r3, [r3]
    8a30:	e3530039 	cmp	r3, #57	; 0x39
    8a34:	8a00000d 	bhi	8a70 <_Z4atoiPKc+0x88>
/home/jamesari/git/os/sp/sources/stdlib/src/stdstring.cpp:43 (discriminator 1)
    8a38:	e51b3010 	ldr	r3, [fp, #-16]
    8a3c:	e5d33000 	ldrb	r3, [r3]
    8a40:	e353002f 	cmp	r3, #47	; 0x2f
    8a44:	9a000009 	bls	8a70 <_Z4atoiPKc+0x88>
/home/jamesari/git/os/sp/sources/stdlib/src/stdstring.cpp:46
			break;

		output += *input - '0';
    8a48:	e51b3010 	ldr	r3, [fp, #-16]
    8a4c:	e5d33000 	ldrb	r3, [r3]
    8a50:	e2433030 	sub	r3, r3, #48	; 0x30
    8a54:	e51b2008 	ldr	r2, [fp, #-8]
    8a58:	e0823003 	add	r3, r2, r3
    8a5c:	e50b3008 	str	r3, [fp, #-8]
/home/jamesari/git/os/sp/sources/stdlib/src/stdstring.cpp:48

		input++;
    8a60:	e51b3010 	ldr	r3, [fp, #-16]
    8a64:	e2833001 	add	r3, r3, #1
    8a68:	e50b3010 	str	r3, [fp, #-16]
/home/jamesari/git/os/sp/sources/stdlib/src/stdstring.cpp:40
	while (*input != '\0')
    8a6c:	eaffffe3 	b	8a00 <_Z4atoiPKc+0x18>
/home/jamesari/git/os/sp/sources/stdlib/src/stdstring.cpp:51
	}

	return output;
    8a70:	e51b3008 	ldr	r3, [fp, #-8]
/home/jamesari/git/os/sp/sources/stdlib/src/stdstring.cpp:52
}
    8a74:	e1a00003 	mov	r0, r3
    8a78:	e28bd000 	add	sp, fp, #0
    8a7c:	e49db004 	pop	{fp}		; (ldr fp, [sp], #4)
    8a80:	e12fff1e 	bx	lr

00008a84 <_Z7strncpyPcPKci>:
_Z7strncpyPcPKci():
/home/jamesari/git/os/sp/sources/stdlib/src/stdstring.cpp:55

char* strncpy(char* dest, const char *src, int num)
{
    8a84:	e52db004 	push	{fp}		; (str fp, [sp, #-4]!)
    8a88:	e28db000 	add	fp, sp, #0
    8a8c:	e24dd01c 	sub	sp, sp, #28
    8a90:	e50b0010 	str	r0, [fp, #-16]
    8a94:	e50b1014 	str	r1, [fp, #-20]	; 0xffffffec
    8a98:	e50b2018 	str	r2, [fp, #-24]	; 0xffffffe8
/home/jamesari/git/os/sp/sources/stdlib/src/stdstring.cpp:58
	int i;

	for (i = 0; i < num && src[i] != '\0'; i++)
    8a9c:	e3a03000 	mov	r3, #0
    8aa0:	e50b3008 	str	r3, [fp, #-8]
/home/jamesari/git/os/sp/sources/stdlib/src/stdstring.cpp:58 (discriminator 4)
    8aa4:	e51b2008 	ldr	r2, [fp, #-8]
    8aa8:	e51b3018 	ldr	r3, [fp, #-24]	; 0xffffffe8
    8aac:	e1520003 	cmp	r2, r3
    8ab0:	aa000011 	bge	8afc <_Z7strncpyPcPKci+0x78>
/home/jamesari/git/os/sp/sources/stdlib/src/stdstring.cpp:58 (discriminator 2)
    8ab4:	e51b3008 	ldr	r3, [fp, #-8]
    8ab8:	e51b2014 	ldr	r2, [fp, #-20]	; 0xffffffec
    8abc:	e0823003 	add	r3, r2, r3
    8ac0:	e5d33000 	ldrb	r3, [r3]
    8ac4:	e3530000 	cmp	r3, #0
    8ac8:	0a00000b 	beq	8afc <_Z7strncpyPcPKci+0x78>
/home/jamesari/git/os/sp/sources/stdlib/src/stdstring.cpp:59 (discriminator 3)
		dest[i] = src[i];
    8acc:	e51b3008 	ldr	r3, [fp, #-8]
    8ad0:	e51b2014 	ldr	r2, [fp, #-20]	; 0xffffffec
    8ad4:	e0822003 	add	r2, r2, r3
    8ad8:	e51b3008 	ldr	r3, [fp, #-8]
    8adc:	e51b1010 	ldr	r1, [fp, #-16]
    8ae0:	e0813003 	add	r3, r1, r3
    8ae4:	e5d22000 	ldrb	r2, [r2]
    8ae8:	e5c32000 	strb	r2, [r3]
/home/jamesari/git/os/sp/sources/stdlib/src/stdstring.cpp:58 (discriminator 3)
	for (i = 0; i < num && src[i] != '\0'; i++)
    8aec:	e51b3008 	ldr	r3, [fp, #-8]
    8af0:	e2833001 	add	r3, r3, #1
    8af4:	e50b3008 	str	r3, [fp, #-8]
    8af8:	eaffffe9 	b	8aa4 <_Z7strncpyPcPKci+0x20>
/home/jamesari/git/os/sp/sources/stdlib/src/stdstring.cpp:60 (discriminator 2)
	for (; i < num; i++)
    8afc:	e51b2008 	ldr	r2, [fp, #-8]
    8b00:	e51b3018 	ldr	r3, [fp, #-24]	; 0xffffffe8
    8b04:	e1520003 	cmp	r2, r3
    8b08:	aa000008 	bge	8b30 <_Z7strncpyPcPKci+0xac>
/home/jamesari/git/os/sp/sources/stdlib/src/stdstring.cpp:61 (discriminator 1)
		dest[i] = '\0';
    8b0c:	e51b3008 	ldr	r3, [fp, #-8]
    8b10:	e51b2010 	ldr	r2, [fp, #-16]
    8b14:	e0823003 	add	r3, r2, r3
    8b18:	e3a02000 	mov	r2, #0
    8b1c:	e5c32000 	strb	r2, [r3]
/home/jamesari/git/os/sp/sources/stdlib/src/stdstring.cpp:60 (discriminator 1)
	for (; i < num; i++)
    8b20:	e51b3008 	ldr	r3, [fp, #-8]
    8b24:	e2833001 	add	r3, r3, #1
    8b28:	e50b3008 	str	r3, [fp, #-8]
    8b2c:	eafffff2 	b	8afc <_Z7strncpyPcPKci+0x78>
/home/jamesari/git/os/sp/sources/stdlib/src/stdstring.cpp:63

   return dest;
    8b30:	e51b3010 	ldr	r3, [fp, #-16]
/home/jamesari/git/os/sp/sources/stdlib/src/stdstring.cpp:64
}
    8b34:	e1a00003 	mov	r0, r3
    8b38:	e28bd000 	add	sp, fp, #0
    8b3c:	e49db004 	pop	{fp}		; (ldr fp, [sp], #4)
    8b40:	e12fff1e 	bx	lr

00008b44 <_Z7strncmpPKcS0_i>:
_Z7strncmpPKcS0_i():
/home/jamesari/git/os/sp/sources/stdlib/src/stdstring.cpp:67

int strncmp(const char *s1, const char *s2, int num)
{
    8b44:	e52db004 	push	{fp}		; (str fp, [sp, #-4]!)
    8b48:	e28db000 	add	fp, sp, #0
    8b4c:	e24dd01c 	sub	sp, sp, #28
    8b50:	e50b0010 	str	r0, [fp, #-16]
    8b54:	e50b1014 	str	r1, [fp, #-20]	; 0xffffffec
    8b58:	e50b2018 	str	r2, [fp, #-24]	; 0xffffffe8
/home/jamesari/git/os/sp/sources/stdlib/src/stdstring.cpp:69
	unsigned char u1, u2;
  	while (num-- > 0)
    8b5c:	e51b3018 	ldr	r3, [fp, #-24]	; 0xffffffe8
    8b60:	e2432001 	sub	r2, r3, #1
    8b64:	e50b2018 	str	r2, [fp, #-24]	; 0xffffffe8
    8b68:	e3530000 	cmp	r3, #0
    8b6c:	c3a03001 	movgt	r3, #1
    8b70:	d3a03000 	movle	r3, #0
    8b74:	e6ef3073 	uxtb	r3, r3
    8b78:	e3530000 	cmp	r3, #0
    8b7c:	0a000016 	beq	8bdc <_Z7strncmpPKcS0_i+0x98>
/home/jamesari/git/os/sp/sources/stdlib/src/stdstring.cpp:71
    {
      	u1 = (unsigned char) *s1++;
    8b80:	e51b3010 	ldr	r3, [fp, #-16]
    8b84:	e2832001 	add	r2, r3, #1
    8b88:	e50b2010 	str	r2, [fp, #-16]
    8b8c:	e5d33000 	ldrb	r3, [r3]
    8b90:	e54b3005 	strb	r3, [fp, #-5]
/home/jamesari/git/os/sp/sources/stdlib/src/stdstring.cpp:72
     	u2 = (unsigned char) *s2++;
    8b94:	e51b3014 	ldr	r3, [fp, #-20]	; 0xffffffec
    8b98:	e2832001 	add	r2, r3, #1
    8b9c:	e50b2014 	str	r2, [fp, #-20]	; 0xffffffec
    8ba0:	e5d33000 	ldrb	r3, [r3]
    8ba4:	e54b3006 	strb	r3, [fp, #-6]
/home/jamesari/git/os/sp/sources/stdlib/src/stdstring.cpp:73
      	if (u1 != u2)
    8ba8:	e55b2005 	ldrb	r2, [fp, #-5]
    8bac:	e55b3006 	ldrb	r3, [fp, #-6]
    8bb0:	e1520003 	cmp	r2, r3
    8bb4:	0a000003 	beq	8bc8 <_Z7strncmpPKcS0_i+0x84>
/home/jamesari/git/os/sp/sources/stdlib/src/stdstring.cpp:74
        	return u1 - u2;
    8bb8:	e55b2005 	ldrb	r2, [fp, #-5]
    8bbc:	e55b3006 	ldrb	r3, [fp, #-6]
    8bc0:	e0423003 	sub	r3, r2, r3
    8bc4:	ea000005 	b	8be0 <_Z7strncmpPKcS0_i+0x9c>
/home/jamesari/git/os/sp/sources/stdlib/src/stdstring.cpp:75
      	if (u1 == '\0')
    8bc8:	e55b3005 	ldrb	r3, [fp, #-5]
    8bcc:	e3530000 	cmp	r3, #0
    8bd0:	1affffe1 	bne	8b5c <_Z7strncmpPKcS0_i+0x18>
/home/jamesari/git/os/sp/sources/stdlib/src/stdstring.cpp:76
        	return 0;
    8bd4:	e3a03000 	mov	r3, #0
    8bd8:	ea000000 	b	8be0 <_Z7strncmpPKcS0_i+0x9c>
/home/jamesari/git/os/sp/sources/stdlib/src/stdstring.cpp:79
    }

  	return 0;
    8bdc:	e3a03000 	mov	r3, #0
/home/jamesari/git/os/sp/sources/stdlib/src/stdstring.cpp:80
}
    8be0:	e1a00003 	mov	r0, r3
    8be4:	e28bd000 	add	sp, fp, #0
    8be8:	e49db004 	pop	{fp}		; (ldr fp, [sp], #4)
    8bec:	e12fff1e 	bx	lr

00008bf0 <_Z6strlenPKc>:
_Z6strlenPKc():
/home/jamesari/git/os/sp/sources/stdlib/src/stdstring.cpp:83

int strlen(const char* s)
{
    8bf0:	e52db004 	push	{fp}		; (str fp, [sp, #-4]!)
    8bf4:	e28db000 	add	fp, sp, #0
    8bf8:	e24dd014 	sub	sp, sp, #20
    8bfc:	e50b0010 	str	r0, [fp, #-16]
/home/jamesari/git/os/sp/sources/stdlib/src/stdstring.cpp:84
	int i = 0;
    8c00:	e3a03000 	mov	r3, #0
    8c04:	e50b3008 	str	r3, [fp, #-8]
/home/jamesari/git/os/sp/sources/stdlib/src/stdstring.cpp:86

	while (s[i] != '\0')
    8c08:	e51b3008 	ldr	r3, [fp, #-8]
    8c0c:	e51b2010 	ldr	r2, [fp, #-16]
    8c10:	e0823003 	add	r3, r2, r3
    8c14:	e5d33000 	ldrb	r3, [r3]
    8c18:	e3530000 	cmp	r3, #0
    8c1c:	0a000003 	beq	8c30 <_Z6strlenPKc+0x40>
/home/jamesari/git/os/sp/sources/stdlib/src/stdstring.cpp:87
		i++;
    8c20:	e51b3008 	ldr	r3, [fp, #-8]
    8c24:	e2833001 	add	r3, r3, #1
    8c28:	e50b3008 	str	r3, [fp, #-8]
/home/jamesari/git/os/sp/sources/stdlib/src/stdstring.cpp:86
	while (s[i] != '\0')
    8c2c:	eafffff5 	b	8c08 <_Z6strlenPKc+0x18>
/home/jamesari/git/os/sp/sources/stdlib/src/stdstring.cpp:89

	return i;
    8c30:	e51b3008 	ldr	r3, [fp, #-8]
/home/jamesari/git/os/sp/sources/stdlib/src/stdstring.cpp:90
}
    8c34:	e1a00003 	mov	r0, r3
    8c38:	e28bd000 	add	sp, fp, #0
    8c3c:	e49db004 	pop	{fp}		; (ldr fp, [sp], #4)
    8c40:	e12fff1e 	bx	lr

00008c44 <_Z5bzeroPvi>:
_Z5bzeroPvi():
/home/jamesari/git/os/sp/sources/stdlib/src/stdstring.cpp:93

void bzero(void* memory, int length)
{
    8c44:	e52db004 	push	{fp}		; (str fp, [sp, #-4]!)
    8c48:	e28db000 	add	fp, sp, #0
    8c4c:	e24dd014 	sub	sp, sp, #20
    8c50:	e50b0010 	str	r0, [fp, #-16]
    8c54:	e50b1014 	str	r1, [fp, #-20]	; 0xffffffec
/home/jamesari/git/os/sp/sources/stdlib/src/stdstring.cpp:94
	char* mem = reinterpret_cast<char*>(memory);
    8c58:	e51b3010 	ldr	r3, [fp, #-16]
    8c5c:	e50b300c 	str	r3, [fp, #-12]
/home/jamesari/git/os/sp/sources/stdlib/src/stdstring.cpp:96

	for (int i = 0; i < length; i++)
    8c60:	e3a03000 	mov	r3, #0
    8c64:	e50b3008 	str	r3, [fp, #-8]
/home/jamesari/git/os/sp/sources/stdlib/src/stdstring.cpp:96 (discriminator 3)
    8c68:	e51b2008 	ldr	r2, [fp, #-8]
    8c6c:	e51b3014 	ldr	r3, [fp, #-20]	; 0xffffffec
    8c70:	e1520003 	cmp	r2, r3
    8c74:	aa000008 	bge	8c9c <_Z5bzeroPvi+0x58>
/home/jamesari/git/os/sp/sources/stdlib/src/stdstring.cpp:97 (discriminator 2)
		mem[i] = 0;
    8c78:	e51b3008 	ldr	r3, [fp, #-8]
    8c7c:	e51b200c 	ldr	r2, [fp, #-12]
    8c80:	e0823003 	add	r3, r2, r3
    8c84:	e3a02000 	mov	r2, #0
    8c88:	e5c32000 	strb	r2, [r3]
/home/jamesari/git/os/sp/sources/stdlib/src/stdstring.cpp:96 (discriminator 2)
	for (int i = 0; i < length; i++)
    8c8c:	e51b3008 	ldr	r3, [fp, #-8]
    8c90:	e2833001 	add	r3, r3, #1
    8c94:	e50b3008 	str	r3, [fp, #-8]
    8c98:	eafffff2 	b	8c68 <_Z5bzeroPvi+0x24>
/home/jamesari/git/os/sp/sources/stdlib/src/stdstring.cpp:98
}
    8c9c:	e320f000 	nop	{0}
    8ca0:	e28bd000 	add	sp, fp, #0
    8ca4:	e49db004 	pop	{fp}		; (ldr fp, [sp], #4)
    8ca8:	e12fff1e 	bx	lr

00008cac <_Z6memcpyPKvPvi>:
_Z6memcpyPKvPvi():
/home/jamesari/git/os/sp/sources/stdlib/src/stdstring.cpp:101

void memcpy(const void* src, void* dst, int num)
{
    8cac:	e52db004 	push	{fp}		; (str fp, [sp, #-4]!)
    8cb0:	e28db000 	add	fp, sp, #0
    8cb4:	e24dd024 	sub	sp, sp, #36	; 0x24
    8cb8:	e50b0018 	str	r0, [fp, #-24]	; 0xffffffe8
    8cbc:	e50b101c 	str	r1, [fp, #-28]	; 0xffffffe4
    8cc0:	e50b2020 	str	r2, [fp, #-32]	; 0xffffffe0
/home/jamesari/git/os/sp/sources/stdlib/src/stdstring.cpp:102
	const char* memsrc = reinterpret_cast<const char*>(src);
    8cc4:	e51b3018 	ldr	r3, [fp, #-24]	; 0xffffffe8
    8cc8:	e50b300c 	str	r3, [fp, #-12]
/home/jamesari/git/os/sp/sources/stdlib/src/stdstring.cpp:103
	char* memdst = reinterpret_cast<char*>(dst);
    8ccc:	e51b301c 	ldr	r3, [fp, #-28]	; 0xffffffe4
    8cd0:	e50b3010 	str	r3, [fp, #-16]
/home/jamesari/git/os/sp/sources/stdlib/src/stdstring.cpp:105

	for (int i = 0; i < num; i++)
    8cd4:	e3a03000 	mov	r3, #0
    8cd8:	e50b3008 	str	r3, [fp, #-8]
/home/jamesari/git/os/sp/sources/stdlib/src/stdstring.cpp:105 (discriminator 3)
    8cdc:	e51b2008 	ldr	r2, [fp, #-8]
    8ce0:	e51b3020 	ldr	r3, [fp, #-32]	; 0xffffffe0
    8ce4:	e1520003 	cmp	r2, r3
    8ce8:	aa00000b 	bge	8d1c <_Z6memcpyPKvPvi+0x70>
/home/jamesari/git/os/sp/sources/stdlib/src/stdstring.cpp:106 (discriminator 2)
		memdst[i] = memsrc[i];
    8cec:	e51b3008 	ldr	r3, [fp, #-8]
    8cf0:	e51b200c 	ldr	r2, [fp, #-12]
    8cf4:	e0822003 	add	r2, r2, r3
    8cf8:	e51b3008 	ldr	r3, [fp, #-8]
    8cfc:	e51b1010 	ldr	r1, [fp, #-16]
    8d00:	e0813003 	add	r3, r1, r3
    8d04:	e5d22000 	ldrb	r2, [r2]
    8d08:	e5c32000 	strb	r2, [r3]
/home/jamesari/git/os/sp/sources/stdlib/src/stdstring.cpp:105 (discriminator 2)
	for (int i = 0; i < num; i++)
    8d0c:	e51b3008 	ldr	r3, [fp, #-8]
    8d10:	e2833001 	add	r3, r3, #1
    8d14:	e50b3008 	str	r3, [fp, #-8]
    8d18:	eaffffef 	b	8cdc <_Z6memcpyPKvPvi+0x30>
/home/jamesari/git/os/sp/sources/stdlib/src/stdstring.cpp:107
}
    8d1c:	e320f000 	nop	{0}
    8d20:	e28bd000 	add	sp, fp, #0
    8d24:	e49db004 	pop	{fp}		; (ldr fp, [sp], #4)
    8d28:	e12fff1e 	bx	lr

00008d2c <_Z3powfj>:
_Z3powfj():
/home/jamesari/git/os/sp/sources/stdlib/src/stdstring.cpp:110

float pow(const float x, const unsigned int n) 
{
    8d2c:	e52db004 	push	{fp}		; (str fp, [sp, #-4]!)
    8d30:	e28db000 	add	fp, sp, #0
    8d34:	e24dd014 	sub	sp, sp, #20
    8d38:	ed0b0a04 	vstr	s0, [fp, #-16]
    8d3c:	e50b0014 	str	r0, [fp, #-20]	; 0xffffffec
/home/jamesari/git/os/sp/sources/stdlib/src/stdstring.cpp:111
    float r = 1.0f;
    8d40:	e3a035fe 	mov	r3, #1065353216	; 0x3f800000
    8d44:	e50b3008 	str	r3, [fp, #-8]
/home/jamesari/git/os/sp/sources/stdlib/src/stdstring.cpp:112
    for(unsigned int i=0; i<n; i++) {
    8d48:	e3a03000 	mov	r3, #0
    8d4c:	e50b300c 	str	r3, [fp, #-12]
/home/jamesari/git/os/sp/sources/stdlib/src/stdstring.cpp:112 (discriminator 3)
    8d50:	e51b200c 	ldr	r2, [fp, #-12]
    8d54:	e51b3014 	ldr	r3, [fp, #-20]	; 0xffffffec
    8d58:	e1520003 	cmp	r2, r3
    8d5c:	2a000007 	bcs	8d80 <_Z3powfj+0x54>
/home/jamesari/git/os/sp/sources/stdlib/src/stdstring.cpp:113 (discriminator 2)
        r *= x;
    8d60:	ed1b7a02 	vldr	s14, [fp, #-8]
    8d64:	ed5b7a04 	vldr	s15, [fp, #-16]
    8d68:	ee677a27 	vmul.f32	s15, s14, s15
    8d6c:	ed4b7a02 	vstr	s15, [fp, #-8]
/home/jamesari/git/os/sp/sources/stdlib/src/stdstring.cpp:112 (discriminator 2)
    for(unsigned int i=0; i<n; i++) {
    8d70:	e51b300c 	ldr	r3, [fp, #-12]
    8d74:	e2833001 	add	r3, r3, #1
    8d78:	e50b300c 	str	r3, [fp, #-12]
    8d7c:	eafffff3 	b	8d50 <_Z3powfj+0x24>
/home/jamesari/git/os/sp/sources/stdlib/src/stdstring.cpp:115
    }
    return r;
    8d80:	e51b3008 	ldr	r3, [fp, #-8]
    8d84:	ee073a90 	vmov	s15, r3
/home/jamesari/git/os/sp/sources/stdlib/src/stdstring.cpp:116
}
    8d88:	eeb00a67 	vmov.f32	s0, s15
    8d8c:	e28bd000 	add	sp, fp, #0
    8d90:	e49db004 	pop	{fp}		; (ldr fp, [sp], #4)
    8d94:	e12fff1e 	bx	lr

00008d98 <_Z6revstrPc>:
_Z6revstrPc():
/home/jamesari/git/os/sp/sources/stdlib/src/stdstring.cpp:119

void revstr(char *str1)  
{  
    8d98:	e92d4800 	push	{fp, lr}
    8d9c:	e28db004 	add	fp, sp, #4
    8da0:	e24dd018 	sub	sp, sp, #24
    8da4:	e50b0018 	str	r0, [fp, #-24]	; 0xffffffe8
/home/jamesari/git/os/sp/sources/stdlib/src/stdstring.cpp:121
    int i, len, temp;  
    len = strlen(str1);
    8da8:	e51b0018 	ldr	r0, [fp, #-24]	; 0xffffffe8
    8dac:	ebffff8f 	bl	8bf0 <_Z6strlenPKc>
    8db0:	e50b000c 	str	r0, [fp, #-12]
/home/jamesari/git/os/sp/sources/stdlib/src/stdstring.cpp:123
      
    for (i = 0; i < len/2; i++)  
    8db4:	e3a03000 	mov	r3, #0
    8db8:	e50b3008 	str	r3, [fp, #-8]
/home/jamesari/git/os/sp/sources/stdlib/src/stdstring.cpp:123 (discriminator 3)
    8dbc:	e51b300c 	ldr	r3, [fp, #-12]
    8dc0:	e1a02fa3 	lsr	r2, r3, #31
    8dc4:	e0823003 	add	r3, r2, r3
    8dc8:	e1a030c3 	asr	r3, r3, #1
    8dcc:	e1a02003 	mov	r2, r3
    8dd0:	e51b3008 	ldr	r3, [fp, #-8]
    8dd4:	e1530002 	cmp	r3, r2
    8dd8:	aa00001c 	bge	8e50 <_Z6revstrPc+0xb8>
/home/jamesari/git/os/sp/sources/stdlib/src/stdstring.cpp:125 (discriminator 2)
    {  
        temp = str1[i];  
    8ddc:	e51b3008 	ldr	r3, [fp, #-8]
    8de0:	e51b2018 	ldr	r2, [fp, #-24]	; 0xffffffe8
    8de4:	e0823003 	add	r3, r2, r3
    8de8:	e5d33000 	ldrb	r3, [r3]
    8dec:	e50b3010 	str	r3, [fp, #-16]
/home/jamesari/git/os/sp/sources/stdlib/src/stdstring.cpp:126 (discriminator 2)
        str1[i] = str1[len - i - 1];  
    8df0:	e51b200c 	ldr	r2, [fp, #-12]
    8df4:	e51b3008 	ldr	r3, [fp, #-8]
    8df8:	e0423003 	sub	r3, r2, r3
    8dfc:	e2433001 	sub	r3, r3, #1
    8e00:	e51b2018 	ldr	r2, [fp, #-24]	; 0xffffffe8
    8e04:	e0822003 	add	r2, r2, r3
    8e08:	e51b3008 	ldr	r3, [fp, #-8]
    8e0c:	e51b1018 	ldr	r1, [fp, #-24]	; 0xffffffe8
    8e10:	e0813003 	add	r3, r1, r3
    8e14:	e5d22000 	ldrb	r2, [r2]
    8e18:	e5c32000 	strb	r2, [r3]
/home/jamesari/git/os/sp/sources/stdlib/src/stdstring.cpp:127 (discriminator 2)
        str1[len - i - 1] = temp;  
    8e1c:	e51b200c 	ldr	r2, [fp, #-12]
    8e20:	e51b3008 	ldr	r3, [fp, #-8]
    8e24:	e0423003 	sub	r3, r2, r3
    8e28:	e2433001 	sub	r3, r3, #1
    8e2c:	e51b2018 	ldr	r2, [fp, #-24]	; 0xffffffe8
    8e30:	e0823003 	add	r3, r2, r3
    8e34:	e51b2010 	ldr	r2, [fp, #-16]
    8e38:	e6ef2072 	uxtb	r2, r2
    8e3c:	e5c32000 	strb	r2, [r3]
/home/jamesari/git/os/sp/sources/stdlib/src/stdstring.cpp:123 (discriminator 2)
    for (i = 0; i < len/2; i++)  
    8e40:	e51b3008 	ldr	r3, [fp, #-8]
    8e44:	e2833001 	add	r3, r3, #1
    8e48:	e50b3008 	str	r3, [fp, #-8]
    8e4c:	eaffffda 	b	8dbc <_Z6revstrPc+0x24>
/home/jamesari/git/os/sp/sources/stdlib/src/stdstring.cpp:129
    }  
}  
    8e50:	e320f000 	nop	{0}
    8e54:	e24bd004 	sub	sp, fp, #4
    8e58:	e8bd8800 	pop	{fp, pc}

00008e5c <_Z11split_floatfRjS_Ri>:
_Z11split_floatfRjS_Ri():
/home/jamesari/git/os/sp/sources/stdlib/src/stdstring.cpp:132

void split_float(float x, unsigned int& integral, unsigned int& decimal, int& exponent) 
{
    8e5c:	e52db004 	push	{fp}		; (str fp, [sp, #-4]!)
    8e60:	e28db000 	add	fp, sp, #0
    8e64:	e24dd01c 	sub	sp, sp, #28
    8e68:	ed0b0a04 	vstr	s0, [fp, #-16]
    8e6c:	e50b0014 	str	r0, [fp, #-20]	; 0xffffffec
    8e70:	e50b1018 	str	r1, [fp, #-24]	; 0xffffffe8
    8e74:	e50b201c 	str	r2, [fp, #-28]	; 0xffffffe4
/home/jamesari/git/os/sp/sources/stdlib/src/stdstring.cpp:133
    if(x>=10.0f) { // convert to base 10
    8e78:	ed5b7a04 	vldr	s15, [fp, #-16]
    8e7c:	ed9f7af3 	vldr	s14, [pc, #972]	; 9250 <_Z11split_floatfRjS_Ri+0x3f4>
    8e80:	eef47ac7 	vcmpe.f32	s15, s14
    8e84:	eef1fa10 	vmrs	APSR_nzcv, fpscr
    8e88:	ba000053 	blt	8fdc <_Z11split_floatfRjS_Ri+0x180>
/home/jamesari/git/os/sp/sources/stdlib/src/stdstring.cpp:134
        if(x>=1E32f) { x *= 1E-32f; exponent += 32; }
    8e8c:	ed5b7a04 	vldr	s15, [fp, #-16]
    8e90:	ed9f7aef 	vldr	s14, [pc, #956]	; 9254 <_Z11split_floatfRjS_Ri+0x3f8>
    8e94:	eef47ac7 	vcmpe.f32	s15, s14
    8e98:	eef1fa10 	vmrs	APSR_nzcv, fpscr
    8e9c:	ba000008 	blt	8ec4 <_Z11split_floatfRjS_Ri+0x68>
/home/jamesari/git/os/sp/sources/stdlib/src/stdstring.cpp:134 (discriminator 1)
    8ea0:	ed5b7a04 	vldr	s15, [fp, #-16]
    8ea4:	ed9f7aeb 	vldr	s14, [pc, #940]	; 9258 <_Z11split_floatfRjS_Ri+0x3fc>
    8ea8:	ee677a87 	vmul.f32	s15, s15, s14
    8eac:	ed4b7a04 	vstr	s15, [fp, #-16]
    8eb0:	e51b301c 	ldr	r3, [fp, #-28]	; 0xffffffe4
    8eb4:	e5933000 	ldr	r3, [r3]
    8eb8:	e2832020 	add	r2, r3, #32
    8ebc:	e51b301c 	ldr	r3, [fp, #-28]	; 0xffffffe4
    8ec0:	e5832000 	str	r2, [r3]
/home/jamesari/git/os/sp/sources/stdlib/src/stdstring.cpp:135
        if(x>=1E16f) { x *= 1E-16f; exponent += 16; }
    8ec4:	ed5b7a04 	vldr	s15, [fp, #-16]
    8ec8:	ed9f7ae3 	vldr	s14, [pc, #908]	; 925c <_Z11split_floatfRjS_Ri+0x400>
    8ecc:	eef47ac7 	vcmpe.f32	s15, s14
    8ed0:	eef1fa10 	vmrs	APSR_nzcv, fpscr
    8ed4:	ba000008 	blt	8efc <_Z11split_floatfRjS_Ri+0xa0>
/home/jamesari/git/os/sp/sources/stdlib/src/stdstring.cpp:135 (discriminator 1)
    8ed8:	ed5b7a04 	vldr	s15, [fp, #-16]
    8edc:	ed9f7adf 	vldr	s14, [pc, #892]	; 9260 <_Z11split_floatfRjS_Ri+0x404>
    8ee0:	ee677a87 	vmul.f32	s15, s15, s14
    8ee4:	ed4b7a04 	vstr	s15, [fp, #-16]
    8ee8:	e51b301c 	ldr	r3, [fp, #-28]	; 0xffffffe4
    8eec:	e5933000 	ldr	r3, [r3]
    8ef0:	e2832010 	add	r2, r3, #16
    8ef4:	e51b301c 	ldr	r3, [fp, #-28]	; 0xffffffe4
    8ef8:	e5832000 	str	r2, [r3]
/home/jamesari/git/os/sp/sources/stdlib/src/stdstring.cpp:136
        if(x>= 1E8f) { x *=  1E-8f; exponent +=  8; }
    8efc:	ed5b7a04 	vldr	s15, [fp, #-16]
    8f00:	ed9f7ad7 	vldr	s14, [pc, #860]	; 9264 <_Z11split_floatfRjS_Ri+0x408>
    8f04:	eef47ac7 	vcmpe.f32	s15, s14
    8f08:	eef1fa10 	vmrs	APSR_nzcv, fpscr
    8f0c:	ba000008 	blt	8f34 <_Z11split_floatfRjS_Ri+0xd8>
/home/jamesari/git/os/sp/sources/stdlib/src/stdstring.cpp:136 (discriminator 1)
    8f10:	ed5b7a04 	vldr	s15, [fp, #-16]
    8f14:	ed9f7ad3 	vldr	s14, [pc, #844]	; 9268 <_Z11split_floatfRjS_Ri+0x40c>
    8f18:	ee677a87 	vmul.f32	s15, s15, s14
    8f1c:	ed4b7a04 	vstr	s15, [fp, #-16]
    8f20:	e51b301c 	ldr	r3, [fp, #-28]	; 0xffffffe4
    8f24:	e5933000 	ldr	r3, [r3]
    8f28:	e2832008 	add	r2, r3, #8
    8f2c:	e51b301c 	ldr	r3, [fp, #-28]	; 0xffffffe4
    8f30:	e5832000 	str	r2, [r3]
/home/jamesari/git/os/sp/sources/stdlib/src/stdstring.cpp:137
        if(x>= 1E4f) { x *=  1E-4f; exponent +=  4; }
    8f34:	ed5b7a04 	vldr	s15, [fp, #-16]
    8f38:	ed9f7acb 	vldr	s14, [pc, #812]	; 926c <_Z11split_floatfRjS_Ri+0x410>
    8f3c:	eef47ac7 	vcmpe.f32	s15, s14
    8f40:	eef1fa10 	vmrs	APSR_nzcv, fpscr
    8f44:	ba000008 	blt	8f6c <_Z11split_floatfRjS_Ri+0x110>
/home/jamesari/git/os/sp/sources/stdlib/src/stdstring.cpp:137 (discriminator 1)
    8f48:	ed5b7a04 	vldr	s15, [fp, #-16]
    8f4c:	ed9f7ac7 	vldr	s14, [pc, #796]	; 9270 <_Z11split_floatfRjS_Ri+0x414>
    8f50:	ee677a87 	vmul.f32	s15, s15, s14
    8f54:	ed4b7a04 	vstr	s15, [fp, #-16]
    8f58:	e51b301c 	ldr	r3, [fp, #-28]	; 0xffffffe4
    8f5c:	e5933000 	ldr	r3, [r3]
    8f60:	e2832004 	add	r2, r3, #4
    8f64:	e51b301c 	ldr	r3, [fp, #-28]	; 0xffffffe4
    8f68:	e5832000 	str	r2, [r3]
/home/jamesari/git/os/sp/sources/stdlib/src/stdstring.cpp:138
        if(x>= 1E2f) { x *=  1E-2f; exponent +=  2; }
    8f6c:	ed5b7a04 	vldr	s15, [fp, #-16]
    8f70:	ed9f7abf 	vldr	s14, [pc, #764]	; 9274 <_Z11split_floatfRjS_Ri+0x418>
    8f74:	eef47ac7 	vcmpe.f32	s15, s14
    8f78:	eef1fa10 	vmrs	APSR_nzcv, fpscr
    8f7c:	ba000008 	blt	8fa4 <_Z11split_floatfRjS_Ri+0x148>
/home/jamesari/git/os/sp/sources/stdlib/src/stdstring.cpp:138 (discriminator 1)
    8f80:	ed5b7a04 	vldr	s15, [fp, #-16]
    8f84:	ed9f7abb 	vldr	s14, [pc, #748]	; 9278 <_Z11split_floatfRjS_Ri+0x41c>
    8f88:	ee677a87 	vmul.f32	s15, s15, s14
    8f8c:	ed4b7a04 	vstr	s15, [fp, #-16]
    8f90:	e51b301c 	ldr	r3, [fp, #-28]	; 0xffffffe4
    8f94:	e5933000 	ldr	r3, [r3]
    8f98:	e2832002 	add	r2, r3, #2
    8f9c:	e51b301c 	ldr	r3, [fp, #-28]	; 0xffffffe4
    8fa0:	e5832000 	str	r2, [r3]
/home/jamesari/git/os/sp/sources/stdlib/src/stdstring.cpp:139
        if(x>= 1E1f) { x *=  1E-1f; exponent +=  1; }
    8fa4:	ed5b7a04 	vldr	s15, [fp, #-16]
    8fa8:	ed9f7aa8 	vldr	s14, [pc, #672]	; 9250 <_Z11split_floatfRjS_Ri+0x3f4>
    8fac:	eef47ac7 	vcmpe.f32	s15, s14
    8fb0:	eef1fa10 	vmrs	APSR_nzcv, fpscr
    8fb4:	ba000008 	blt	8fdc <_Z11split_floatfRjS_Ri+0x180>
/home/jamesari/git/os/sp/sources/stdlib/src/stdstring.cpp:139 (discriminator 1)
    8fb8:	ed5b7a04 	vldr	s15, [fp, #-16]
    8fbc:	ed9f7aae 	vldr	s14, [pc, #696]	; 927c <_Z11split_floatfRjS_Ri+0x420>
    8fc0:	ee677a87 	vmul.f32	s15, s15, s14
    8fc4:	ed4b7a04 	vstr	s15, [fp, #-16]
    8fc8:	e51b301c 	ldr	r3, [fp, #-28]	; 0xffffffe4
    8fcc:	e5933000 	ldr	r3, [r3]
    8fd0:	e2832001 	add	r2, r3, #1
    8fd4:	e51b301c 	ldr	r3, [fp, #-28]	; 0xffffffe4
    8fd8:	e5832000 	str	r2, [r3]
/home/jamesari/git/os/sp/sources/stdlib/src/stdstring.cpp:141
    }
    if(x>0.0f && x<=1.0f) {
    8fdc:	ed5b7a04 	vldr	s15, [fp, #-16]
    8fe0:	eef57ac0 	vcmpe.f32	s15, #0.0
    8fe4:	eef1fa10 	vmrs	APSR_nzcv, fpscr
    8fe8:	da000058 	ble	9150 <_Z11split_floatfRjS_Ri+0x2f4>
/home/jamesari/git/os/sp/sources/stdlib/src/stdstring.cpp:141 (discriminator 1)
    8fec:	ed5b7a04 	vldr	s15, [fp, #-16]
    8ff0:	ed9f7aa2 	vldr	s14, [pc, #648]	; 9280 <_Z11split_floatfRjS_Ri+0x424>
    8ff4:	eef47ac7 	vcmpe.f32	s15, s14
    8ff8:	eef1fa10 	vmrs	APSR_nzcv, fpscr
    8ffc:	8a000053 	bhi	9150 <_Z11split_floatfRjS_Ri+0x2f4>
/home/jamesari/git/os/sp/sources/stdlib/src/stdstring.cpp:142
        if(x<1E-31f) { x *=  1E32f; exponent -= 32; }
    9000:	ed5b7a04 	vldr	s15, [fp, #-16]
    9004:	ed9f7a9e 	vldr	s14, [pc, #632]	; 9284 <_Z11split_floatfRjS_Ri+0x428>
    9008:	eef47ac7 	vcmpe.f32	s15, s14
    900c:	eef1fa10 	vmrs	APSR_nzcv, fpscr
    9010:	5a000008 	bpl	9038 <_Z11split_floatfRjS_Ri+0x1dc>
/home/jamesari/git/os/sp/sources/stdlib/src/stdstring.cpp:142 (discriminator 1)
    9014:	ed5b7a04 	vldr	s15, [fp, #-16]
    9018:	ed9f7a8d 	vldr	s14, [pc, #564]	; 9254 <_Z11split_floatfRjS_Ri+0x3f8>
    901c:	ee677a87 	vmul.f32	s15, s15, s14
    9020:	ed4b7a04 	vstr	s15, [fp, #-16]
    9024:	e51b301c 	ldr	r3, [fp, #-28]	; 0xffffffe4
    9028:	e5933000 	ldr	r3, [r3]
    902c:	e2432020 	sub	r2, r3, #32
    9030:	e51b301c 	ldr	r3, [fp, #-28]	; 0xffffffe4
    9034:	e5832000 	str	r2, [r3]
/home/jamesari/git/os/sp/sources/stdlib/src/stdstring.cpp:143
        if(x<1E-15f) { x *=  1E16f; exponent -= 16; }
    9038:	ed5b7a04 	vldr	s15, [fp, #-16]
    903c:	ed9f7a91 	vldr	s14, [pc, #580]	; 9288 <_Z11split_floatfRjS_Ri+0x42c>
    9040:	eef47ac7 	vcmpe.f32	s15, s14
    9044:	eef1fa10 	vmrs	APSR_nzcv, fpscr
    9048:	5a000008 	bpl	9070 <_Z11split_floatfRjS_Ri+0x214>
/home/jamesari/git/os/sp/sources/stdlib/src/stdstring.cpp:143 (discriminator 1)
    904c:	ed5b7a04 	vldr	s15, [fp, #-16]
    9050:	ed9f7a81 	vldr	s14, [pc, #516]	; 925c <_Z11split_floatfRjS_Ri+0x400>
    9054:	ee677a87 	vmul.f32	s15, s15, s14
    9058:	ed4b7a04 	vstr	s15, [fp, #-16]
    905c:	e51b301c 	ldr	r3, [fp, #-28]	; 0xffffffe4
    9060:	e5933000 	ldr	r3, [r3]
    9064:	e2432010 	sub	r2, r3, #16
    9068:	e51b301c 	ldr	r3, [fp, #-28]	; 0xffffffe4
    906c:	e5832000 	str	r2, [r3]
/home/jamesari/git/os/sp/sources/stdlib/src/stdstring.cpp:144
        if(x< 1E-7f) { x *=   1E8f; exponent -=  8; }
    9070:	ed5b7a04 	vldr	s15, [fp, #-16]
    9074:	ed9f7a84 	vldr	s14, [pc, #528]	; 928c <_Z11split_floatfRjS_Ri+0x430>
    9078:	eef47ac7 	vcmpe.f32	s15, s14
    907c:	eef1fa10 	vmrs	APSR_nzcv, fpscr
    9080:	5a000008 	bpl	90a8 <_Z11split_floatfRjS_Ri+0x24c>
/home/jamesari/git/os/sp/sources/stdlib/src/stdstring.cpp:144 (discriminator 1)
    9084:	ed5b7a04 	vldr	s15, [fp, #-16]
    9088:	ed9f7a75 	vldr	s14, [pc, #468]	; 9264 <_Z11split_floatfRjS_Ri+0x408>
    908c:	ee677a87 	vmul.f32	s15, s15, s14
    9090:	ed4b7a04 	vstr	s15, [fp, #-16]
    9094:	e51b301c 	ldr	r3, [fp, #-28]	; 0xffffffe4
    9098:	e5933000 	ldr	r3, [r3]
    909c:	e2432008 	sub	r2, r3, #8
    90a0:	e51b301c 	ldr	r3, [fp, #-28]	; 0xffffffe4
    90a4:	e5832000 	str	r2, [r3]
/home/jamesari/git/os/sp/sources/stdlib/src/stdstring.cpp:145
        if(x< 1E-3f) { x *=   1E4f; exponent -=  4; }
    90a8:	ed5b7a04 	vldr	s15, [fp, #-16]
    90ac:	ed9f7a77 	vldr	s14, [pc, #476]	; 9290 <_Z11split_floatfRjS_Ri+0x434>
    90b0:	eef47ac7 	vcmpe.f32	s15, s14
    90b4:	eef1fa10 	vmrs	APSR_nzcv, fpscr
    90b8:	5a000008 	bpl	90e0 <_Z11split_floatfRjS_Ri+0x284>
/home/jamesari/git/os/sp/sources/stdlib/src/stdstring.cpp:145 (discriminator 1)
    90bc:	ed5b7a04 	vldr	s15, [fp, #-16]
    90c0:	ed9f7a69 	vldr	s14, [pc, #420]	; 926c <_Z11split_floatfRjS_Ri+0x410>
    90c4:	ee677a87 	vmul.f32	s15, s15, s14
    90c8:	ed4b7a04 	vstr	s15, [fp, #-16]
    90cc:	e51b301c 	ldr	r3, [fp, #-28]	; 0xffffffe4
    90d0:	e5933000 	ldr	r3, [r3]
    90d4:	e2432004 	sub	r2, r3, #4
    90d8:	e51b301c 	ldr	r3, [fp, #-28]	; 0xffffffe4
    90dc:	e5832000 	str	r2, [r3]
/home/jamesari/git/os/sp/sources/stdlib/src/stdstring.cpp:146
        if(x< 1E-1f) { x *=   1E2f; exponent -=  2; }
    90e0:	ed5b7a04 	vldr	s15, [fp, #-16]
    90e4:	ed9f7a64 	vldr	s14, [pc, #400]	; 927c <_Z11split_floatfRjS_Ri+0x420>
    90e8:	eef47ac7 	vcmpe.f32	s15, s14
    90ec:	eef1fa10 	vmrs	APSR_nzcv, fpscr
    90f0:	5a000008 	bpl	9118 <_Z11split_floatfRjS_Ri+0x2bc>
/home/jamesari/git/os/sp/sources/stdlib/src/stdstring.cpp:146 (discriminator 1)
    90f4:	ed5b7a04 	vldr	s15, [fp, #-16]
    90f8:	ed9f7a5d 	vldr	s14, [pc, #372]	; 9274 <_Z11split_floatfRjS_Ri+0x418>
    90fc:	ee677a87 	vmul.f32	s15, s15, s14
    9100:	ed4b7a04 	vstr	s15, [fp, #-16]
    9104:	e51b301c 	ldr	r3, [fp, #-28]	; 0xffffffe4
    9108:	e5933000 	ldr	r3, [r3]
    910c:	e2432002 	sub	r2, r3, #2
    9110:	e51b301c 	ldr	r3, [fp, #-28]	; 0xffffffe4
    9114:	e5832000 	str	r2, [r3]
/home/jamesari/git/os/sp/sources/stdlib/src/stdstring.cpp:147
        if(x<  1E0f) { x *=   1E1f; exponent -=  1; }
    9118:	ed5b7a04 	vldr	s15, [fp, #-16]
    911c:	ed9f7a57 	vldr	s14, [pc, #348]	; 9280 <_Z11split_floatfRjS_Ri+0x424>
    9120:	eef47ac7 	vcmpe.f32	s15, s14
    9124:	eef1fa10 	vmrs	APSR_nzcv, fpscr
    9128:	5a000008 	bpl	9150 <_Z11split_floatfRjS_Ri+0x2f4>
/home/jamesari/git/os/sp/sources/stdlib/src/stdstring.cpp:147 (discriminator 1)
    912c:	ed5b7a04 	vldr	s15, [fp, #-16]
    9130:	ed9f7a46 	vldr	s14, [pc, #280]	; 9250 <_Z11split_floatfRjS_Ri+0x3f4>
    9134:	ee677a87 	vmul.f32	s15, s15, s14
    9138:	ed4b7a04 	vstr	s15, [fp, #-16]
    913c:	e51b301c 	ldr	r3, [fp, #-28]	; 0xffffffe4
    9140:	e5933000 	ldr	r3, [r3]
    9144:	e2432001 	sub	r2, r3, #1
    9148:	e51b301c 	ldr	r3, [fp, #-28]	; 0xffffffe4
    914c:	e5832000 	str	r2, [r3]
/home/jamesari/git/os/sp/sources/stdlib/src/stdstring.cpp:149
    }
    integral = (unsigned int)x;
    9150:	ed5b7a04 	vldr	s15, [fp, #-16]
    9154:	eefc7ae7 	vcvt.u32.f32	s15, s15
    9158:	ee172a90 	vmov	r2, s15
    915c:	e51b3014 	ldr	r3, [fp, #-20]	; 0xffffffec
    9160:	e5832000 	str	r2, [r3]
/home/jamesari/git/os/sp/sources/stdlib/src/stdstring.cpp:150
    float remainder = (x-integral)*1E8f; // 8 decimal digits
    9164:	e51b3014 	ldr	r3, [fp, #-20]	; 0xffffffec
    9168:	e5933000 	ldr	r3, [r3]
    916c:	ee073a90 	vmov	s15, r3
    9170:	eef87a67 	vcvt.f32.u32	s15, s15
    9174:	ed1b7a04 	vldr	s14, [fp, #-16]
    9178:	ee777a67 	vsub.f32	s15, s14, s15
    917c:	ed9f7a38 	vldr	s14, [pc, #224]	; 9264 <_Z11split_floatfRjS_Ri+0x408>
    9180:	ee677a87 	vmul.f32	s15, s15, s14
    9184:	ed4b7a02 	vstr	s15, [fp, #-8]
/home/jamesari/git/os/sp/sources/stdlib/src/stdstring.cpp:151
    decimal = (unsigned int)remainder;
    9188:	ed5b7a02 	vldr	s15, [fp, #-8]
    918c:	eefc7ae7 	vcvt.u32.f32	s15, s15
    9190:	ee172a90 	vmov	r2, s15
    9194:	e51b3018 	ldr	r3, [fp, #-24]	; 0xffffffe8
    9198:	e5832000 	str	r2, [r3]
/home/jamesari/git/os/sp/sources/stdlib/src/stdstring.cpp:152
    if(remainder-(float)decimal>=0.5f) { // correct rounding of last decimal digit
    919c:	e51b3018 	ldr	r3, [fp, #-24]	; 0xffffffe8
    91a0:	e5933000 	ldr	r3, [r3]
    91a4:	ee073a90 	vmov	s15, r3
    91a8:	eef87a67 	vcvt.f32.u32	s15, s15
    91ac:	ed1b7a02 	vldr	s14, [fp, #-8]
    91b0:	ee777a67 	vsub.f32	s15, s14, s15
    91b4:	ed9f7a36 	vldr	s14, [pc, #216]	; 9294 <_Z11split_floatfRjS_Ri+0x438>
    91b8:	eef47ac7 	vcmpe.f32	s15, s14
    91bc:	eef1fa10 	vmrs	APSR_nzcv, fpscr
    91c0:	aa000000 	bge	91c8 <_Z11split_floatfRjS_Ri+0x36c>
/home/jamesari/git/os/sp/sources/stdlib/src/stdstring.cpp:163
                integral = 1;
                exponent++;
            }
        }
    }
}
    91c4:	ea00001d 	b	9240 <_Z11split_floatfRjS_Ri+0x3e4>
/home/jamesari/git/os/sp/sources/stdlib/src/stdstring.cpp:153
        decimal++;
    91c8:	e51b3018 	ldr	r3, [fp, #-24]	; 0xffffffe8
    91cc:	e5933000 	ldr	r3, [r3]
    91d0:	e2832001 	add	r2, r3, #1
    91d4:	e51b3018 	ldr	r3, [fp, #-24]	; 0xffffffe8
    91d8:	e5832000 	str	r2, [r3]
/home/jamesari/git/os/sp/sources/stdlib/src/stdstring.cpp:154
        if(decimal>=100000000u) { // decimal overflow
    91dc:	e51b3018 	ldr	r3, [fp, #-24]	; 0xffffffe8
    91e0:	e5933000 	ldr	r3, [r3]
    91e4:	e59f20ac 	ldr	r2, [pc, #172]	; 9298 <_Z11split_floatfRjS_Ri+0x43c>
    91e8:	e1530002 	cmp	r3, r2
    91ec:	9a000013 	bls	9240 <_Z11split_floatfRjS_Ri+0x3e4>
/home/jamesari/git/os/sp/sources/stdlib/src/stdstring.cpp:155
            decimal = 0;
    91f0:	e51b3018 	ldr	r3, [fp, #-24]	; 0xffffffe8
    91f4:	e3a02000 	mov	r2, #0
    91f8:	e5832000 	str	r2, [r3]
/home/jamesari/git/os/sp/sources/stdlib/src/stdstring.cpp:156
            integral++;
    91fc:	e51b3014 	ldr	r3, [fp, #-20]	; 0xffffffec
    9200:	e5933000 	ldr	r3, [r3]
    9204:	e2832001 	add	r2, r3, #1
    9208:	e51b3014 	ldr	r3, [fp, #-20]	; 0xffffffec
    920c:	e5832000 	str	r2, [r3]
/home/jamesari/git/os/sp/sources/stdlib/src/stdstring.cpp:157
            if(integral>=10u) { // decimal overflow causes integral overflow
    9210:	e51b3014 	ldr	r3, [fp, #-20]	; 0xffffffec
    9214:	e5933000 	ldr	r3, [r3]
    9218:	e3530009 	cmp	r3, #9
    921c:	9a000007 	bls	9240 <_Z11split_floatfRjS_Ri+0x3e4>
/home/jamesari/git/os/sp/sources/stdlib/src/stdstring.cpp:158
                integral = 1;
    9220:	e51b3014 	ldr	r3, [fp, #-20]	; 0xffffffec
    9224:	e3a02001 	mov	r2, #1
    9228:	e5832000 	str	r2, [r3]
/home/jamesari/git/os/sp/sources/stdlib/src/stdstring.cpp:159
                exponent++;
    922c:	e51b301c 	ldr	r3, [fp, #-28]	; 0xffffffe4
    9230:	e5933000 	ldr	r3, [r3]
    9234:	e2832001 	add	r2, r3, #1
    9238:	e51b301c 	ldr	r3, [fp, #-28]	; 0xffffffe4
    923c:	e5832000 	str	r2, [r3]
/home/jamesari/git/os/sp/sources/stdlib/src/stdstring.cpp:163
}
    9240:	e320f000 	nop	{0}
    9244:	e28bd000 	add	sp, fp, #0
    9248:	e49db004 	pop	{fp}		; (ldr fp, [sp], #4)
    924c:	e12fff1e 	bx	lr
    9250:	41200000 			; <UNDEFINED> instruction: 0x41200000
    9254:	749dc5ae 	ldrvc	ip, [sp], #1454	; 0x5ae
    9258:	0a4fb11f 	beq	13f56dc <__bss_end+0x13ebb5c>
    925c:	5a0e1bca 	bpl	39018c <__bss_end+0x38660c>
    9260:	24e69595 	strbtcs	r9, [r6], #1429	; 0x595
    9264:	4cbebc20 	ldcmi	12, cr11, [lr], #128	; 0x80
    9268:	322bcc77 	eorcc	ip, fp, #30464	; 0x7700
    926c:	461c4000 	ldrmi	r4, [ip], -r0
    9270:	38d1b717 	ldmcc	r1, {r0, r1, r2, r4, r8, r9, sl, ip, sp, pc}^
    9274:	42c80000 	sbcmi	r0, r8, #0
    9278:	3c23d70a 	stccc	7, cr13, [r3], #-40	; 0xffffffd8
    927c:	3dcccccd 	stclcc	12, cr12, [ip, #820]	; 0x334
    9280:	3f800000 	svccc	0x00800000
    9284:	0c01ceb3 	stceq	14, cr12, [r1], {179}	; 0xb3
    9288:	26901d7d 			; <UNDEFINED> instruction: 0x26901d7d
    928c:	33d6bf95 	bicscc	fp, r6, #596	; 0x254
    9290:	3a83126f 	bcc	fe0cdc54 <__bss_end+0xfe0c40d4>
    9294:	3f000000 	svccc	0x00000000
    9298:	05f5e0ff 	ldrbeq	lr, [r5, #255]!	; 0xff

0000929c <_Z23decimal_to_string_floatjPci>:
_Z23decimal_to_string_floatjPci():
/home/jamesari/git/os/sp/sources/stdlib/src/stdstring.cpp:166

void decimal_to_string_float(unsigned int x, char *bfr, int digits) 
{
    929c:	e92d4800 	push	{fp, lr}
    92a0:	e28db004 	add	fp, sp, #4
    92a4:	e24dd018 	sub	sp, sp, #24
    92a8:	e50b0010 	str	r0, [fp, #-16]
    92ac:	e50b1014 	str	r1, [fp, #-20]	; 0xffffffec
    92b0:	e50b2018 	str	r2, [fp, #-24]	; 0xffffffe8
/home/jamesari/git/os/sp/sources/stdlib/src/stdstring.cpp:167
	int index = 0;
    92b4:	e3a03000 	mov	r3, #0
    92b8:	e50b3008 	str	r3, [fp, #-8]
/home/jamesari/git/os/sp/sources/stdlib/src/stdstring.cpp:168
    while((digits--)>0) {
    92bc:	e51b3018 	ldr	r3, [fp, #-24]	; 0xffffffe8
    92c0:	e2432001 	sub	r2, r3, #1
    92c4:	e50b2018 	str	r2, [fp, #-24]	; 0xffffffe8
    92c8:	e3530000 	cmp	r3, #0
    92cc:	c3a03001 	movgt	r3, #1
    92d0:	d3a03000 	movle	r3, #0
    92d4:	e6ef3073 	uxtb	r3, r3
    92d8:	e3530000 	cmp	r3, #0
    92dc:	0a000018 	beq	9344 <_Z23decimal_to_string_floatjPci+0xa8>
/home/jamesari/git/os/sp/sources/stdlib/src/stdstring.cpp:169
        bfr[index++] = (char)(x%10+48);
    92e0:	e51b1010 	ldr	r1, [fp, #-16]
    92e4:	e59f3080 	ldr	r3, [pc, #128]	; 936c <_Z23decimal_to_string_floatjPci+0xd0>
    92e8:	e0832193 	umull	r2, r3, r3, r1
    92ec:	e1a021a3 	lsr	r2, r3, #3
    92f0:	e1a03002 	mov	r3, r2
    92f4:	e1a03103 	lsl	r3, r3, #2
    92f8:	e0833002 	add	r3, r3, r2
    92fc:	e1a03083 	lsl	r3, r3, #1
    9300:	e0412003 	sub	r2, r1, r3
    9304:	e6ef2072 	uxtb	r2, r2
    9308:	e51b3008 	ldr	r3, [fp, #-8]
    930c:	e2831001 	add	r1, r3, #1
    9310:	e50b1008 	str	r1, [fp, #-8]
    9314:	e1a01003 	mov	r1, r3
    9318:	e51b3014 	ldr	r3, [fp, #-20]	; 0xffffffec
    931c:	e0833001 	add	r3, r3, r1
    9320:	e2822030 	add	r2, r2, #48	; 0x30
    9324:	e6ef2072 	uxtb	r2, r2
    9328:	e5c32000 	strb	r2, [r3]
/home/jamesari/git/os/sp/sources/stdlib/src/stdstring.cpp:170
        x /= 10;
    932c:	e51b3010 	ldr	r3, [fp, #-16]
    9330:	e59f2034 	ldr	r2, [pc, #52]	; 936c <_Z23decimal_to_string_floatjPci+0xd0>
    9334:	e0832392 	umull	r2, r3, r2, r3
    9338:	e1a031a3 	lsr	r3, r3, #3
    933c:	e50b3010 	str	r3, [fp, #-16]
/home/jamesari/git/os/sp/sources/stdlib/src/stdstring.cpp:168
    while((digits--)>0) {
    9340:	eaffffdd 	b	92bc <_Z23decimal_to_string_floatjPci+0x20>
/home/jamesari/git/os/sp/sources/stdlib/src/stdstring.cpp:172
    }
	bfr[index] = '\0';
    9344:	e51b3008 	ldr	r3, [fp, #-8]
    9348:	e51b2014 	ldr	r2, [fp, #-20]	; 0xffffffec
    934c:	e0823003 	add	r3, r2, r3
    9350:	e3a02000 	mov	r2, #0
    9354:	e5c32000 	strb	r2, [r3]
/home/jamesari/git/os/sp/sources/stdlib/src/stdstring.cpp:173
	revstr(bfr);
    9358:	e51b0014 	ldr	r0, [fp, #-20]	; 0xffffffec
    935c:	ebfffe8d 	bl	8d98 <_Z6revstrPc>
/home/jamesari/git/os/sp/sources/stdlib/src/stdstring.cpp:174
}
    9360:	e320f000 	nop	{0}
    9364:	e24bd004 	sub	sp, fp, #4
    9368:	e8bd8800 	pop	{fp, pc}
    936c:	cccccccd 	stclgt	12, cr12, [ip], {205}	; 0xcd

00009370 <_Z5isnanf>:
_Z5isnanf():
/home/jamesari/git/os/sp/sources/stdlib/src/stdstring.cpp:177

bool isnan(float x) 
{
    9370:	e52db004 	push	{fp}		; (str fp, [sp, #-4]!)
    9374:	e28db000 	add	fp, sp, #0
    9378:	e24dd00c 	sub	sp, sp, #12
    937c:	ed0b0a02 	vstr	s0, [fp, #-8]
/home/jamesari/git/os/sp/sources/stdlib/src/stdstring.cpp:178
	return x != x;
    9380:	ed1b7a02 	vldr	s14, [fp, #-8]
    9384:	ed5b7a02 	vldr	s15, [fp, #-8]
    9388:	eeb47a67 	vcmp.f32	s14, s15
    938c:	eef1fa10 	vmrs	APSR_nzcv, fpscr
    9390:	13a03001 	movne	r3, #1
    9394:	03a03000 	moveq	r3, #0
    9398:	e6ef3073 	uxtb	r3, r3
/home/jamesari/git/os/sp/sources/stdlib/src/stdstring.cpp:179
}
    939c:	e1a00003 	mov	r0, r3
    93a0:	e28bd000 	add	sp, fp, #0
    93a4:	e49db004 	pop	{fp}		; (ldr fp, [sp], #4)
    93a8:	e12fff1e 	bx	lr

000093ac <_Z5isinff>:
_Z5isinff():
/home/jamesari/git/os/sp/sources/stdlib/src/stdstring.cpp:182

bool isinf(float x) 
{
    93ac:	e52db004 	push	{fp}		; (str fp, [sp, #-4]!)
    93b0:	e28db000 	add	fp, sp, #0
    93b4:	e24dd00c 	sub	sp, sp, #12
    93b8:	ed0b0a02 	vstr	s0, [fp, #-8]
/home/jamesari/git/os/sp/sources/stdlib/src/stdstring.cpp:183
	return x > INFINITY;
    93bc:	ed5b7a02 	vldr	s15, [fp, #-8]
    93c0:	ed9f7a08 	vldr	s14, [pc, #32]	; 93e8 <_Z5isinff+0x3c>
    93c4:	eef47ac7 	vcmpe.f32	s15, s14
    93c8:	eef1fa10 	vmrs	APSR_nzcv, fpscr
    93cc:	c3a03001 	movgt	r3, #1
    93d0:	d3a03000 	movle	r3, #0
    93d4:	e6ef3073 	uxtb	r3, r3
/home/jamesari/git/os/sp/sources/stdlib/src/stdstring.cpp:184
}
    93d8:	e1a00003 	mov	r0, r3
    93dc:	e28bd000 	add	sp, fp, #0
    93e0:	e49db004 	pop	{fp}		; (ldr fp, [sp], #4)
    93e4:	e12fff1e 	bx	lr
    93e8:	7f7fffff 	svcvc	0x007fffff

000093ec <_Z4ftoafPc>:
_Z4ftoafPc():
/home/jamesari/git/os/sp/sources/stdlib/src/stdstring.cpp:188

// convert float to string with full precision
void ftoa(float x, char *bfr) 
{
    93ec:	e92d4800 	push	{fp, lr}
    93f0:	e28db004 	add	fp, sp, #4
    93f4:	e24dd008 	sub	sp, sp, #8
    93f8:	ed0b0a02 	vstr	s0, [fp, #-8]
    93fc:	e50b000c 	str	r0, [fp, #-12]
/home/jamesari/git/os/sp/sources/stdlib/src/stdstring.cpp:189
	ftoa(x, bfr, 8);
    9400:	e3a01008 	mov	r1, #8
    9404:	e51b000c 	ldr	r0, [fp, #-12]
    9408:	ed1b0a02 	vldr	s0, [fp, #-8]
    940c:	eb000002 	bl	941c <_Z4ftoafPcj>
/home/jamesari/git/os/sp/sources/stdlib/src/stdstring.cpp:190
}
    9410:	e320f000 	nop	{0}
    9414:	e24bd004 	sub	sp, fp, #4
    9418:	e8bd8800 	pop	{fp, pc}

0000941c <_Z4ftoafPcj>:
_Z4ftoafPcj():
/home/jamesari/git/os/sp/sources/stdlib/src/stdstring.cpp:194

// convert float to string with specified number of decimals
void ftoa(float x, char *bfr, const unsigned int decimals)
{ 
    941c:	e92d4800 	push	{fp, lr}
    9420:	e28db004 	add	fp, sp, #4
    9424:	e24dd060 	sub	sp, sp, #96	; 0x60
    9428:	ed0b0a16 	vstr	s0, [fp, #-88]	; 0xffffffa8
    942c:	e50b005c 	str	r0, [fp, #-92]	; 0xffffffa4
    9430:	e50b1060 	str	r1, [fp, #-96]	; 0xffffffa0
/home/jamesari/git/os/sp/sources/stdlib/src/stdstring.cpp:195
	unsigned int index = 0;
    9434:	e3a03000 	mov	r3, #0
    9438:	e50b3008 	str	r3, [fp, #-8]
/home/jamesari/git/os/sp/sources/stdlib/src/stdstring.cpp:196
    if (x<0.0f) 
    943c:	ed5b7a16 	vldr	s15, [fp, #-88]	; 0xffffffa8
    9440:	eef57ac0 	vcmpe.f32	s15, #0.0
    9444:	eef1fa10 	vmrs	APSR_nzcv, fpscr
    9448:	5a000009 	bpl	9474 <_Z4ftoafPcj+0x58>
/home/jamesari/git/os/sp/sources/stdlib/src/stdstring.cpp:198
	{ 
		bfr[index++] = '-';
    944c:	e51b3008 	ldr	r3, [fp, #-8]
    9450:	e2832001 	add	r2, r3, #1
    9454:	e50b2008 	str	r2, [fp, #-8]
    9458:	e51b205c 	ldr	r2, [fp, #-92]	; 0xffffffa4
    945c:	e0823003 	add	r3, r2, r3
    9460:	e3a0202d 	mov	r2, #45	; 0x2d
    9464:	e5c32000 	strb	r2, [r3]
/home/jamesari/git/os/sp/sources/stdlib/src/stdstring.cpp:199
		x = -x;
    9468:	ed5b7a16 	vldr	s15, [fp, #-88]	; 0xffffffa8
    946c:	eef17a67 	vneg.f32	s15, s15
    9470:	ed4b7a16 	vstr	s15, [fp, #-88]	; 0xffffffa8
/home/jamesari/git/os/sp/sources/stdlib/src/stdstring.cpp:201
	}
    if(isnan(x)) 
    9474:	ed1b0a16 	vldr	s0, [fp, #-88]	; 0xffffffa8
    9478:	ebffffbc 	bl	9370 <_Z5isnanf>
    947c:	e1a03000 	mov	r3, r0
    9480:	e3530000 	cmp	r3, #0
    9484:	0a00001c 	beq	94fc <_Z4ftoafPcj+0xe0>
/home/jamesari/git/os/sp/sources/stdlib/src/stdstring.cpp:203
	{
		bfr[index++] = 'N';
    9488:	e51b3008 	ldr	r3, [fp, #-8]
    948c:	e2832001 	add	r2, r3, #1
    9490:	e50b2008 	str	r2, [fp, #-8]
    9494:	e51b205c 	ldr	r2, [fp, #-92]	; 0xffffffa4
    9498:	e0823003 	add	r3, r2, r3
    949c:	e3a0204e 	mov	r2, #78	; 0x4e
    94a0:	e5c32000 	strb	r2, [r3]
/home/jamesari/git/os/sp/sources/stdlib/src/stdstring.cpp:204
		bfr[index++] = 'a';
    94a4:	e51b3008 	ldr	r3, [fp, #-8]
    94a8:	e2832001 	add	r2, r3, #1
    94ac:	e50b2008 	str	r2, [fp, #-8]
    94b0:	e51b205c 	ldr	r2, [fp, #-92]	; 0xffffffa4
    94b4:	e0823003 	add	r3, r2, r3
    94b8:	e3a02061 	mov	r2, #97	; 0x61
    94bc:	e5c32000 	strb	r2, [r3]
/home/jamesari/git/os/sp/sources/stdlib/src/stdstring.cpp:205
		bfr[index++] = 'N';
    94c0:	e51b3008 	ldr	r3, [fp, #-8]
    94c4:	e2832001 	add	r2, r3, #1
    94c8:	e50b2008 	str	r2, [fp, #-8]
    94cc:	e51b205c 	ldr	r2, [fp, #-92]	; 0xffffffa4
    94d0:	e0823003 	add	r3, r2, r3
    94d4:	e3a0204e 	mov	r2, #78	; 0x4e
    94d8:	e5c32000 	strb	r2, [r3]
/home/jamesari/git/os/sp/sources/stdlib/src/stdstring.cpp:206
		bfr[index++] = '\0';
    94dc:	e51b3008 	ldr	r3, [fp, #-8]
    94e0:	e2832001 	add	r2, r3, #1
    94e4:	e50b2008 	str	r2, [fp, #-8]
    94e8:	e51b205c 	ldr	r2, [fp, #-92]	; 0xffffffa4
    94ec:	e0823003 	add	r3, r2, r3
    94f0:	e3a02000 	mov	r2, #0
    94f4:	e5c32000 	strb	r2, [r3]
/home/jamesari/git/os/sp/sources/stdlib/src/stdstring.cpp:207
		return;
    94f8:	ea00008c 	b	9730 <_Z4ftoafPcj+0x314>
/home/jamesari/git/os/sp/sources/stdlib/src/stdstring.cpp:209
	}
    if(isinf(x)) 
    94fc:	ed1b0a16 	vldr	s0, [fp, #-88]	; 0xffffffa8
    9500:	ebffffa9 	bl	93ac <_Z5isinff>
    9504:	e1a03000 	mov	r3, r0
    9508:	e3530000 	cmp	r3, #0
    950c:	0a00001c 	beq	9584 <_Z4ftoafPcj+0x168>
/home/jamesari/git/os/sp/sources/stdlib/src/stdstring.cpp:211
	{
		bfr[index++] = 'I';
    9510:	e51b3008 	ldr	r3, [fp, #-8]
    9514:	e2832001 	add	r2, r3, #1
    9518:	e50b2008 	str	r2, [fp, #-8]
    951c:	e51b205c 	ldr	r2, [fp, #-92]	; 0xffffffa4
    9520:	e0823003 	add	r3, r2, r3
    9524:	e3a02049 	mov	r2, #73	; 0x49
    9528:	e5c32000 	strb	r2, [r3]
/home/jamesari/git/os/sp/sources/stdlib/src/stdstring.cpp:212
		bfr[index++] = 'n';
    952c:	e51b3008 	ldr	r3, [fp, #-8]
    9530:	e2832001 	add	r2, r3, #1
    9534:	e50b2008 	str	r2, [fp, #-8]
    9538:	e51b205c 	ldr	r2, [fp, #-92]	; 0xffffffa4
    953c:	e0823003 	add	r3, r2, r3
    9540:	e3a0206e 	mov	r2, #110	; 0x6e
    9544:	e5c32000 	strb	r2, [r3]
/home/jamesari/git/os/sp/sources/stdlib/src/stdstring.cpp:213
		bfr[index++] = 'f';
    9548:	e51b3008 	ldr	r3, [fp, #-8]
    954c:	e2832001 	add	r2, r3, #1
    9550:	e50b2008 	str	r2, [fp, #-8]
    9554:	e51b205c 	ldr	r2, [fp, #-92]	; 0xffffffa4
    9558:	e0823003 	add	r3, r2, r3
    955c:	e3a02066 	mov	r2, #102	; 0x66
    9560:	e5c32000 	strb	r2, [r3]
/home/jamesari/git/os/sp/sources/stdlib/src/stdstring.cpp:214
		bfr[index++] = '\0';
    9564:	e51b3008 	ldr	r3, [fp, #-8]
    9568:	e2832001 	add	r2, r3, #1
    956c:	e50b2008 	str	r2, [fp, #-8]
    9570:	e51b205c 	ldr	r2, [fp, #-92]	; 0xffffffa4
    9574:	e0823003 	add	r3, r2, r3
    9578:	e3a02000 	mov	r2, #0
    957c:	e5c32000 	strb	r2, [r3]
/home/jamesari/git/os/sp/sources/stdlib/src/stdstring.cpp:215
		return;
    9580:	ea00006a 	b	9730 <_Z4ftoafPcj+0x314>
/home/jamesari/git/os/sp/sources/stdlib/src/stdstring.cpp:217
	}
	int precision = 8;
    9584:	e3a03008 	mov	r3, #8
    9588:	e50b300c 	str	r3, [fp, #-12]
/home/jamesari/git/os/sp/sources/stdlib/src/stdstring.cpp:218
	if (decimals < 8 && decimals >= 0)
    958c:	e51b3060 	ldr	r3, [fp, #-96]	; 0xffffffa0
    9590:	e3530007 	cmp	r3, #7
    9594:	8a000001 	bhi	95a0 <_Z4ftoafPcj+0x184>
/home/jamesari/git/os/sp/sources/stdlib/src/stdstring.cpp:219
		precision = decimals;
    9598:	e51b3060 	ldr	r3, [fp, #-96]	; 0xffffffa0
    959c:	e50b300c 	str	r3, [fp, #-12]
/home/jamesari/git/os/sp/sources/stdlib/src/stdstring.cpp:221

    const float power = pow(10.0f, precision);
    95a0:	e51b300c 	ldr	r3, [fp, #-12]
    95a4:	e1a00003 	mov	r0, r3
    95a8:	ed9f0a62 	vldr	s0, [pc, #392]	; 9738 <_Z4ftoafPcj+0x31c>
    95ac:	ebfffdde 	bl	8d2c <_Z3powfj>
    95b0:	ed0b0a06 	vstr	s0, [fp, #-24]	; 0xffffffe8
/home/jamesari/git/os/sp/sources/stdlib/src/stdstring.cpp:222
    x += 0.5f/power; // rounding
    95b4:	eddf6a60 	vldr	s13, [pc, #384]	; 973c <_Z4ftoafPcj+0x320>
    95b8:	ed1b7a06 	vldr	s14, [fp, #-24]	; 0xffffffe8
    95bc:	eec67a87 	vdiv.f32	s15, s13, s14
    95c0:	ed1b7a16 	vldr	s14, [fp, #-88]	; 0xffffffa8
    95c4:	ee777a27 	vadd.f32	s15, s14, s15
    95c8:	ed4b7a16 	vstr	s15, [fp, #-88]	; 0xffffffa8
/home/jamesari/git/os/sp/sources/stdlib/src/stdstring.cpp:224
	// unsigned long long ?
    const unsigned int integral = (unsigned int)x;
    95cc:	ed5b7a16 	vldr	s15, [fp, #-88]	; 0xffffffa8
    95d0:	eefc7ae7 	vcvt.u32.f32	s15, s15
    95d4:	ee173a90 	vmov	r3, s15
    95d8:	e50b301c 	str	r3, [fp, #-28]	; 0xffffffe4
/home/jamesari/git/os/sp/sources/stdlib/src/stdstring.cpp:225
    const unsigned int decimal = (unsigned int)((x-(float)integral)*power);
    95dc:	e51b301c 	ldr	r3, [fp, #-28]	; 0xffffffe4
    95e0:	ee073a90 	vmov	s15, r3
    95e4:	eef87a67 	vcvt.f32.u32	s15, s15
    95e8:	ed1b7a16 	vldr	s14, [fp, #-88]	; 0xffffffa8
    95ec:	ee377a67 	vsub.f32	s14, s14, s15
    95f0:	ed5b7a06 	vldr	s15, [fp, #-24]	; 0xffffffe8
    95f4:	ee677a27 	vmul.f32	s15, s14, s15
    95f8:	eefc7ae7 	vcvt.u32.f32	s15, s15
    95fc:	ee173a90 	vmov	r3, s15
    9600:	e50b3020 	str	r3, [fp, #-32]	; 0xffffffe0
/home/jamesari/git/os/sp/sources/stdlib/src/stdstring.cpp:228

	char string_int[32];
	itoa(integral, string_int, 10);
    9604:	e24b3044 	sub	r3, fp, #68	; 0x44
    9608:	e3a0200a 	mov	r2, #10
    960c:	e1a01003 	mov	r1, r3
    9610:	e51b001c 	ldr	r0, [fp, #-28]	; 0xffffffe4
    9614:	ebfffc96 	bl	8874 <_Z4itoajPcj>
/home/jamesari/git/os/sp/sources/stdlib/src/stdstring.cpp:229
	int string_int_len = strlen(string_int);
    9618:	e24b3044 	sub	r3, fp, #68	; 0x44
    961c:	e1a00003 	mov	r0, r3
    9620:	ebfffd72 	bl	8bf0 <_Z6strlenPKc>
    9624:	e50b0024 	str	r0, [fp, #-36]	; 0xffffffdc
/home/jamesari/git/os/sp/sources/stdlib/src/stdstring.cpp:231

	for (int i = 0; i < string_int_len; i++)
    9628:	e3a03000 	mov	r3, #0
    962c:	e50b3010 	str	r3, [fp, #-16]
/home/jamesari/git/os/sp/sources/stdlib/src/stdstring.cpp:231 (discriminator 3)
    9630:	e51b2010 	ldr	r2, [fp, #-16]
    9634:	e51b3024 	ldr	r3, [fp, #-36]	; 0xffffffdc
    9638:	e1520003 	cmp	r2, r3
    963c:	aa00000d 	bge	9678 <_Z4ftoafPcj+0x25c>
/home/jamesari/git/os/sp/sources/stdlib/src/stdstring.cpp:233 (discriminator 2)
	{
		bfr[index++] = string_int[i];
    9640:	e51b3008 	ldr	r3, [fp, #-8]
    9644:	e2832001 	add	r2, r3, #1
    9648:	e50b2008 	str	r2, [fp, #-8]
    964c:	e51b205c 	ldr	r2, [fp, #-92]	; 0xffffffa4
    9650:	e0823003 	add	r3, r2, r3
    9654:	e24b1044 	sub	r1, fp, #68	; 0x44
    9658:	e51b2010 	ldr	r2, [fp, #-16]
    965c:	e0812002 	add	r2, r1, r2
    9660:	e5d22000 	ldrb	r2, [r2]
    9664:	e5c32000 	strb	r2, [r3]
/home/jamesari/git/os/sp/sources/stdlib/src/stdstring.cpp:231 (discriminator 2)
	for (int i = 0; i < string_int_len; i++)
    9668:	e51b3010 	ldr	r3, [fp, #-16]
    966c:	e2833001 	add	r3, r3, #1
    9670:	e50b3010 	str	r3, [fp, #-16]
    9674:	eaffffed 	b	9630 <_Z4ftoafPcj+0x214>
/home/jamesari/git/os/sp/sources/stdlib/src/stdstring.cpp:236
	}

	if (decimals != 0) 
    9678:	e51b3060 	ldr	r3, [fp, #-96]	; 0xffffffa0
    967c:	e3530000 	cmp	r3, #0
    9680:	0a000025 	beq	971c <_Z4ftoafPcj+0x300>
/home/jamesari/git/os/sp/sources/stdlib/src/stdstring.cpp:238
	{
		bfr[index++] = '.';
    9684:	e51b3008 	ldr	r3, [fp, #-8]
    9688:	e2832001 	add	r2, r3, #1
    968c:	e50b2008 	str	r2, [fp, #-8]
    9690:	e51b205c 	ldr	r2, [fp, #-92]	; 0xffffffa4
    9694:	e0823003 	add	r3, r2, r3
    9698:	e3a0202e 	mov	r2, #46	; 0x2e
    969c:	e5c32000 	strb	r2, [r3]
/home/jamesari/git/os/sp/sources/stdlib/src/stdstring.cpp:240
		char string_decimals[9];
		decimal_to_string_float(decimal, string_decimals, precision);
    96a0:	e24b3050 	sub	r3, fp, #80	; 0x50
    96a4:	e51b200c 	ldr	r2, [fp, #-12]
    96a8:	e1a01003 	mov	r1, r3
    96ac:	e51b0020 	ldr	r0, [fp, #-32]	; 0xffffffe0
    96b0:	ebfffef9 	bl	929c <_Z23decimal_to_string_floatjPci>
/home/jamesari/git/os/sp/sources/stdlib/src/stdstring.cpp:242

		for (int i = 0; i < 9; i++)
    96b4:	e3a03000 	mov	r3, #0
    96b8:	e50b3014 	str	r3, [fp, #-20]	; 0xffffffec
/home/jamesari/git/os/sp/sources/stdlib/src/stdstring.cpp:242 (discriminator 1)
    96bc:	e51b3014 	ldr	r3, [fp, #-20]	; 0xffffffec
    96c0:	e3530008 	cmp	r3, #8
    96c4:	ca000014 	bgt	971c <_Z4ftoafPcj+0x300>
/home/jamesari/git/os/sp/sources/stdlib/src/stdstring.cpp:244
		{
			if (string_decimals[i] == '\0')
    96c8:	e24b2050 	sub	r2, fp, #80	; 0x50
    96cc:	e51b3014 	ldr	r3, [fp, #-20]	; 0xffffffec
    96d0:	e0823003 	add	r3, r2, r3
    96d4:	e5d33000 	ldrb	r3, [r3]
    96d8:	e3530000 	cmp	r3, #0
    96dc:	0a00000d 	beq	9718 <_Z4ftoafPcj+0x2fc>
/home/jamesari/git/os/sp/sources/stdlib/src/stdstring.cpp:246 (discriminator 2)
				break;
			bfr[index++] = string_decimals[i];
    96e0:	e51b3008 	ldr	r3, [fp, #-8]
    96e4:	e2832001 	add	r2, r3, #1
    96e8:	e50b2008 	str	r2, [fp, #-8]
    96ec:	e51b205c 	ldr	r2, [fp, #-92]	; 0xffffffa4
    96f0:	e0823003 	add	r3, r2, r3
    96f4:	e24b1050 	sub	r1, fp, #80	; 0x50
    96f8:	e51b2014 	ldr	r2, [fp, #-20]	; 0xffffffec
    96fc:	e0812002 	add	r2, r1, r2
    9700:	e5d22000 	ldrb	r2, [r2]
    9704:	e5c32000 	strb	r2, [r3]
/home/jamesari/git/os/sp/sources/stdlib/src/stdstring.cpp:242 (discriminator 2)
		for (int i = 0; i < 9; i++)
    9708:	e51b3014 	ldr	r3, [fp, #-20]	; 0xffffffec
    970c:	e2833001 	add	r3, r3, #1
    9710:	e50b3014 	str	r3, [fp, #-20]	; 0xffffffec
    9714:	eaffffe8 	b	96bc <_Z4ftoafPcj+0x2a0>
/home/jamesari/git/os/sp/sources/stdlib/src/stdstring.cpp:245
				break;
    9718:	e320f000 	nop	{0}
/home/jamesari/git/os/sp/sources/stdlib/src/stdstring.cpp:249 (discriminator 2)
		}
	}
	bfr[index] = '\0';
    971c:	e51b205c 	ldr	r2, [fp, #-92]	; 0xffffffa4
    9720:	e51b3008 	ldr	r3, [fp, #-8]
    9724:	e0823003 	add	r3, r2, r3
    9728:	e3a02000 	mov	r2, #0
    972c:	e5c32000 	strb	r2, [r3]
/home/jamesari/git/os/sp/sources/stdlib/src/stdstring.cpp:250
}
    9730:	e24bd004 	sub	sp, fp, #4
    9734:	e8bd8800 	pop	{fp, pc}
    9738:	41200000 			; <UNDEFINED> instruction: 0x41200000
    973c:	3f000000 	svccc	0x00000000

00009740 <_Z4atofPKc>:
_Z4atofPKc():
/home/jamesari/git/os/sp/sources/stdlib/src/stdstring.cpp:253

float atof(const char* s) 
{
    9740:	e52db004 	push	{fp}		; (str fp, [sp, #-4]!)
    9744:	e28db000 	add	fp, sp, #0
    9748:	e24dd01c 	sub	sp, sp, #28
    974c:	e50b0018 	str	r0, [fp, #-24]	; 0xffffffe8
/home/jamesari/git/os/sp/sources/stdlib/src/stdstring.cpp:254
  float rez = 0, fact = 1;
    9750:	e3a03000 	mov	r3, #0
    9754:	e50b3008 	str	r3, [fp, #-8]
    9758:	e3a035fe 	mov	r3, #1065353216	; 0x3f800000
    975c:	e50b300c 	str	r3, [fp, #-12]
/home/jamesari/git/os/sp/sources/stdlib/src/stdstring.cpp:255
  if (*s == '-'){
    9760:	e51b3018 	ldr	r3, [fp, #-24]	; 0xffffffe8
    9764:	e5d33000 	ldrb	r3, [r3]
    9768:	e353002d 	cmp	r3, #45	; 0x2d
    976c:	1a000004 	bne	9784 <_Z4atofPKc+0x44>
/home/jamesari/git/os/sp/sources/stdlib/src/stdstring.cpp:256
    s++;
    9770:	e51b3018 	ldr	r3, [fp, #-24]	; 0xffffffe8
    9774:	e2833001 	add	r3, r3, #1
    9778:	e50b3018 	str	r3, [fp, #-24]	; 0xffffffe8
/home/jamesari/git/os/sp/sources/stdlib/src/stdstring.cpp:257
    fact = -1;
    977c:	e59f30c8 	ldr	r3, [pc, #200]	; 984c <_Z4atofPKc+0x10c>
    9780:	e50b300c 	str	r3, [fp, #-12]
/home/jamesari/git/os/sp/sources/stdlib/src/stdstring.cpp:259
  };
  for (int point_seen = 0; *s; s++){
    9784:	e3a03000 	mov	r3, #0
    9788:	e50b3010 	str	r3, [fp, #-16]
/home/jamesari/git/os/sp/sources/stdlib/src/stdstring.cpp:259 (discriminator 1)
    978c:	e51b3018 	ldr	r3, [fp, #-24]	; 0xffffffe8
    9790:	e5d33000 	ldrb	r3, [r3]
    9794:	e3530000 	cmp	r3, #0
    9798:	0a000023 	beq	982c <_Z4atofPKc+0xec>
/home/jamesari/git/os/sp/sources/stdlib/src/stdstring.cpp:260
    if (*s == '.'){
    979c:	e51b3018 	ldr	r3, [fp, #-24]	; 0xffffffe8
    97a0:	e5d33000 	ldrb	r3, [r3]
    97a4:	e353002e 	cmp	r3, #46	; 0x2e
    97a8:	1a000002 	bne	97b8 <_Z4atofPKc+0x78>
/home/jamesari/git/os/sp/sources/stdlib/src/stdstring.cpp:261 (discriminator 1)
      point_seen = 1; 
    97ac:	e3a03001 	mov	r3, #1
    97b0:	e50b3010 	str	r3, [fp, #-16]
/home/jamesari/git/os/sp/sources/stdlib/src/stdstring.cpp:262 (discriminator 1)
      continue;
    97b4:	ea000018 	b	981c <_Z4atofPKc+0xdc>
/home/jamesari/git/os/sp/sources/stdlib/src/stdstring.cpp:264
    };
    int d = *s - '0';
    97b8:	e51b3018 	ldr	r3, [fp, #-24]	; 0xffffffe8
    97bc:	e5d33000 	ldrb	r3, [r3]
    97c0:	e2433030 	sub	r3, r3, #48	; 0x30
    97c4:	e50b3014 	str	r3, [fp, #-20]	; 0xffffffec
/home/jamesari/git/os/sp/sources/stdlib/src/stdstring.cpp:265
    if (d >= 0 && d <= 9){
    97c8:	e51b3014 	ldr	r3, [fp, #-20]	; 0xffffffec
    97cc:	e3530000 	cmp	r3, #0
    97d0:	ba000011 	blt	981c <_Z4atofPKc+0xdc>
/home/jamesari/git/os/sp/sources/stdlib/src/stdstring.cpp:265 (discriminator 1)
    97d4:	e51b3014 	ldr	r3, [fp, #-20]	; 0xffffffec
    97d8:	e3530009 	cmp	r3, #9
    97dc:	ca00000e 	bgt	981c <_Z4atofPKc+0xdc>
/home/jamesari/git/os/sp/sources/stdlib/src/stdstring.cpp:266
      if (point_seen) fact /= 10.0f;
    97e0:	e51b3010 	ldr	r3, [fp, #-16]
    97e4:	e3530000 	cmp	r3, #0
    97e8:	0a000003 	beq	97fc <_Z4atofPKc+0xbc>
/home/jamesari/git/os/sp/sources/stdlib/src/stdstring.cpp:266 (discriminator 1)
    97ec:	ed1b7a03 	vldr	s14, [fp, #-12]
    97f0:	eddf6a14 	vldr	s13, [pc, #80]	; 9848 <_Z4atofPKc+0x108>
    97f4:	eec77a26 	vdiv.f32	s15, s14, s13
    97f8:	ed4b7a03 	vstr	s15, [fp, #-12]
/home/jamesari/git/os/sp/sources/stdlib/src/stdstring.cpp:267
      rez = rez * 10.0f + (float)d;
    97fc:	ed5b7a02 	vldr	s15, [fp, #-8]
    9800:	ed9f7a10 	vldr	s14, [pc, #64]	; 9848 <_Z4atofPKc+0x108>
    9804:	ee277a87 	vmul.f32	s14, s15, s14
    9808:	e51b3014 	ldr	r3, [fp, #-20]	; 0xffffffec
    980c:	ee073a90 	vmov	s15, r3
    9810:	eef87ae7 	vcvt.f32.s32	s15, s15
    9814:	ee777a27 	vadd.f32	s15, s14, s15
    9818:	ed4b7a02 	vstr	s15, [fp, #-8]
/home/jamesari/git/os/sp/sources/stdlib/src/stdstring.cpp:259 (discriminator 2)
  for (int point_seen = 0; *s; s++){
    981c:	e51b3018 	ldr	r3, [fp, #-24]	; 0xffffffe8
    9820:	e2833001 	add	r3, r3, #1
    9824:	e50b3018 	str	r3, [fp, #-24]	; 0xffffffe8
    9828:	eaffffd7 	b	978c <_Z4atofPKc+0x4c>
/home/jamesari/git/os/sp/sources/stdlib/src/stdstring.cpp:270
    };
  };
  return rez * fact;
    982c:	ed1b7a02 	vldr	s14, [fp, #-8]
    9830:	ed5b7a03 	vldr	s15, [fp, #-12]
    9834:	ee677a27 	vmul.f32	s15, s14, s15
/home/jamesari/git/os/sp/sources/stdlib/src/stdstring.cpp:271
    9838:	eeb00a67 	vmov.f32	s0, s15
    983c:	e28bd000 	add	sp, fp, #0
    9840:	e49db004 	pop	{fp}		; (ldr fp, [sp], #4)
    9844:	e12fff1e 	bx	lr
    9848:	41200000 			; <UNDEFINED> instruction: 0x41200000
    984c:	bf800000 	svclt	0x00800000

00009850 <__udivsi3>:
__udivsi3():
/build/gcc-arm-none-eabi-Gl9kT9/gcc-arm-none-eabi-9-2019-q4/build/arm-none-eabi/arm/v5te/hard/libgcc/../../../../../../libgcc/config/arm/lib1funcs.S:1099
    9850:	e2512001 	subs	r2, r1, #1
/build/gcc-arm-none-eabi-Gl9kT9/gcc-arm-none-eabi-9-2019-q4/build/arm-none-eabi/arm/v5te/hard/libgcc/../../../../../../libgcc/config/arm/lib1funcs.S:1101
    9854:	012fff1e 	bxeq	lr
/build/gcc-arm-none-eabi-Gl9kT9/gcc-arm-none-eabi-9-2019-q4/build/arm-none-eabi/arm/v5te/hard/libgcc/../../../../../../libgcc/config/arm/lib1funcs.S:1102
    9858:	3a000074 	bcc	9a30 <__udivsi3+0x1e0>
/build/gcc-arm-none-eabi-Gl9kT9/gcc-arm-none-eabi-9-2019-q4/build/arm-none-eabi/arm/v5te/hard/libgcc/../../../../../../libgcc/config/arm/lib1funcs.S:1103
    985c:	e1500001 	cmp	r0, r1
/build/gcc-arm-none-eabi-Gl9kT9/gcc-arm-none-eabi-9-2019-q4/build/arm-none-eabi/arm/v5te/hard/libgcc/../../../../../../libgcc/config/arm/lib1funcs.S:1104
    9860:	9a00006b 	bls	9a14 <__udivsi3+0x1c4>
/build/gcc-arm-none-eabi-Gl9kT9/gcc-arm-none-eabi-9-2019-q4/build/arm-none-eabi/arm/v5te/hard/libgcc/../../../../../../libgcc/config/arm/lib1funcs.S:1105
    9864:	e1110002 	tst	r1, r2
/build/gcc-arm-none-eabi-Gl9kT9/gcc-arm-none-eabi-9-2019-q4/build/arm-none-eabi/arm/v5te/hard/libgcc/../../../../../../libgcc/config/arm/lib1funcs.S:1106
    9868:	0a00006c 	beq	9a20 <__udivsi3+0x1d0>
/build/gcc-arm-none-eabi-Gl9kT9/gcc-arm-none-eabi-9-2019-q4/build/arm-none-eabi/arm/v5te/hard/libgcc/../../../../../../libgcc/config/arm/lib1funcs.S:1108
    986c:	e16f3f10 	clz	r3, r0
    9870:	e16f2f11 	clz	r2, r1
    9874:	e0423003 	sub	r3, r2, r3
    9878:	e273301f 	rsbs	r3, r3, #31
    987c:	10833083 	addne	r3, r3, r3, lsl #1
    9880:	e3a02000 	mov	r2, #0
    9884:	108ff103 	addne	pc, pc, r3, lsl #2
    9888:	e1a00000 	nop			; (mov r0, r0)
    988c:	e1500f81 	cmp	r0, r1, lsl #31
    9890:	e0a22002 	adc	r2, r2, r2
    9894:	20400f81 	subcs	r0, r0, r1, lsl #31
    9898:	e1500f01 	cmp	r0, r1, lsl #30
    989c:	e0a22002 	adc	r2, r2, r2
    98a0:	20400f01 	subcs	r0, r0, r1, lsl #30
    98a4:	e1500e81 	cmp	r0, r1, lsl #29
    98a8:	e0a22002 	adc	r2, r2, r2
    98ac:	20400e81 	subcs	r0, r0, r1, lsl #29
    98b0:	e1500e01 	cmp	r0, r1, lsl #28
    98b4:	e0a22002 	adc	r2, r2, r2
    98b8:	20400e01 	subcs	r0, r0, r1, lsl #28
    98bc:	e1500d81 	cmp	r0, r1, lsl #27
    98c0:	e0a22002 	adc	r2, r2, r2
    98c4:	20400d81 	subcs	r0, r0, r1, lsl #27
    98c8:	e1500d01 	cmp	r0, r1, lsl #26
    98cc:	e0a22002 	adc	r2, r2, r2
    98d0:	20400d01 	subcs	r0, r0, r1, lsl #26
    98d4:	e1500c81 	cmp	r0, r1, lsl #25
    98d8:	e0a22002 	adc	r2, r2, r2
    98dc:	20400c81 	subcs	r0, r0, r1, lsl #25
    98e0:	e1500c01 	cmp	r0, r1, lsl #24
    98e4:	e0a22002 	adc	r2, r2, r2
    98e8:	20400c01 	subcs	r0, r0, r1, lsl #24
    98ec:	e1500b81 	cmp	r0, r1, lsl #23
    98f0:	e0a22002 	adc	r2, r2, r2
    98f4:	20400b81 	subcs	r0, r0, r1, lsl #23
    98f8:	e1500b01 	cmp	r0, r1, lsl #22
    98fc:	e0a22002 	adc	r2, r2, r2
    9900:	20400b01 	subcs	r0, r0, r1, lsl #22
    9904:	e1500a81 	cmp	r0, r1, lsl #21
    9908:	e0a22002 	adc	r2, r2, r2
    990c:	20400a81 	subcs	r0, r0, r1, lsl #21
    9910:	e1500a01 	cmp	r0, r1, lsl #20
    9914:	e0a22002 	adc	r2, r2, r2
    9918:	20400a01 	subcs	r0, r0, r1, lsl #20
    991c:	e1500981 	cmp	r0, r1, lsl #19
    9920:	e0a22002 	adc	r2, r2, r2
    9924:	20400981 	subcs	r0, r0, r1, lsl #19
    9928:	e1500901 	cmp	r0, r1, lsl #18
    992c:	e0a22002 	adc	r2, r2, r2
    9930:	20400901 	subcs	r0, r0, r1, lsl #18
    9934:	e1500881 	cmp	r0, r1, lsl #17
    9938:	e0a22002 	adc	r2, r2, r2
    993c:	20400881 	subcs	r0, r0, r1, lsl #17
    9940:	e1500801 	cmp	r0, r1, lsl #16
    9944:	e0a22002 	adc	r2, r2, r2
    9948:	20400801 	subcs	r0, r0, r1, lsl #16
    994c:	e1500781 	cmp	r0, r1, lsl #15
    9950:	e0a22002 	adc	r2, r2, r2
    9954:	20400781 	subcs	r0, r0, r1, lsl #15
    9958:	e1500701 	cmp	r0, r1, lsl #14
    995c:	e0a22002 	adc	r2, r2, r2
    9960:	20400701 	subcs	r0, r0, r1, lsl #14
    9964:	e1500681 	cmp	r0, r1, lsl #13
    9968:	e0a22002 	adc	r2, r2, r2
    996c:	20400681 	subcs	r0, r0, r1, lsl #13
    9970:	e1500601 	cmp	r0, r1, lsl #12
    9974:	e0a22002 	adc	r2, r2, r2
    9978:	20400601 	subcs	r0, r0, r1, lsl #12
    997c:	e1500581 	cmp	r0, r1, lsl #11
    9980:	e0a22002 	adc	r2, r2, r2
    9984:	20400581 	subcs	r0, r0, r1, lsl #11
    9988:	e1500501 	cmp	r0, r1, lsl #10
    998c:	e0a22002 	adc	r2, r2, r2
    9990:	20400501 	subcs	r0, r0, r1, lsl #10
    9994:	e1500481 	cmp	r0, r1, lsl #9
    9998:	e0a22002 	adc	r2, r2, r2
    999c:	20400481 	subcs	r0, r0, r1, lsl #9
    99a0:	e1500401 	cmp	r0, r1, lsl #8
    99a4:	e0a22002 	adc	r2, r2, r2
    99a8:	20400401 	subcs	r0, r0, r1, lsl #8
    99ac:	e1500381 	cmp	r0, r1, lsl #7
    99b0:	e0a22002 	adc	r2, r2, r2
    99b4:	20400381 	subcs	r0, r0, r1, lsl #7
    99b8:	e1500301 	cmp	r0, r1, lsl #6
    99bc:	e0a22002 	adc	r2, r2, r2
    99c0:	20400301 	subcs	r0, r0, r1, lsl #6
    99c4:	e1500281 	cmp	r0, r1, lsl #5
    99c8:	e0a22002 	adc	r2, r2, r2
    99cc:	20400281 	subcs	r0, r0, r1, lsl #5
    99d0:	e1500201 	cmp	r0, r1, lsl #4
    99d4:	e0a22002 	adc	r2, r2, r2
    99d8:	20400201 	subcs	r0, r0, r1, lsl #4
    99dc:	e1500181 	cmp	r0, r1, lsl #3
    99e0:	e0a22002 	adc	r2, r2, r2
    99e4:	20400181 	subcs	r0, r0, r1, lsl #3
    99e8:	e1500101 	cmp	r0, r1, lsl #2
    99ec:	e0a22002 	adc	r2, r2, r2
    99f0:	20400101 	subcs	r0, r0, r1, lsl #2
    99f4:	e1500081 	cmp	r0, r1, lsl #1
    99f8:	e0a22002 	adc	r2, r2, r2
    99fc:	20400081 	subcs	r0, r0, r1, lsl #1
    9a00:	e1500001 	cmp	r0, r1
    9a04:	e0a22002 	adc	r2, r2, r2
    9a08:	20400001 	subcs	r0, r0, r1
/build/gcc-arm-none-eabi-Gl9kT9/gcc-arm-none-eabi-9-2019-q4/build/arm-none-eabi/arm/v5te/hard/libgcc/../../../../../../libgcc/config/arm/lib1funcs.S:1110
    9a0c:	e1a00002 	mov	r0, r2
/build/gcc-arm-none-eabi-Gl9kT9/gcc-arm-none-eabi-9-2019-q4/build/arm-none-eabi/arm/v5te/hard/libgcc/../../../../../../libgcc/config/arm/lib1funcs.S:1111
    9a10:	e12fff1e 	bx	lr
/build/gcc-arm-none-eabi-Gl9kT9/gcc-arm-none-eabi-9-2019-q4/build/arm-none-eabi/arm/v5te/hard/libgcc/../../../../../../libgcc/config/arm/lib1funcs.S:1114
    9a14:	03a00001 	moveq	r0, #1
/build/gcc-arm-none-eabi-Gl9kT9/gcc-arm-none-eabi-9-2019-q4/build/arm-none-eabi/arm/v5te/hard/libgcc/../../../../../../libgcc/config/arm/lib1funcs.S:1115
    9a18:	13a00000 	movne	r0, #0
/build/gcc-arm-none-eabi-Gl9kT9/gcc-arm-none-eabi-9-2019-q4/build/arm-none-eabi/arm/v5te/hard/libgcc/../../../../../../libgcc/config/arm/lib1funcs.S:1116
    9a1c:	e12fff1e 	bx	lr
/build/gcc-arm-none-eabi-Gl9kT9/gcc-arm-none-eabi-9-2019-q4/build/arm-none-eabi/arm/v5te/hard/libgcc/../../../../../../libgcc/config/arm/lib1funcs.S:1118
    9a20:	e16f2f11 	clz	r2, r1
    9a24:	e262201f 	rsb	r2, r2, #31
/build/gcc-arm-none-eabi-Gl9kT9/gcc-arm-none-eabi-9-2019-q4/build/arm-none-eabi/arm/v5te/hard/libgcc/../../../../../../libgcc/config/arm/lib1funcs.S:1120
    9a28:	e1a00230 	lsr	r0, r0, r2
/build/gcc-arm-none-eabi-Gl9kT9/gcc-arm-none-eabi-9-2019-q4/build/arm-none-eabi/arm/v5te/hard/libgcc/../../../../../../libgcc/config/arm/lib1funcs.S:1121
    9a2c:	e12fff1e 	bx	lr
/build/gcc-arm-none-eabi-Gl9kT9/gcc-arm-none-eabi-9-2019-q4/build/arm-none-eabi/arm/v5te/hard/libgcc/../../../../../../libgcc/config/arm/lib1funcs.S:1125
    9a30:	e3500000 	cmp	r0, #0
    9a34:	13e00000 	mvnne	r0, #0
    9a38:	ea000007 	b	9a5c <__aeabi_idiv0>

00009a3c <__aeabi_uidivmod>:
__aeabi_uidivmod():
/build/gcc-arm-none-eabi-Gl9kT9/gcc-arm-none-eabi-9-2019-q4/build/arm-none-eabi/arm/v5te/hard/libgcc/../../../../../../libgcc/config/arm/lib1funcs.S:1156
    9a3c:	e3510000 	cmp	r1, #0
/build/gcc-arm-none-eabi-Gl9kT9/gcc-arm-none-eabi-9-2019-q4/build/arm-none-eabi/arm/v5te/hard/libgcc/../../../../../../libgcc/config/arm/lib1funcs.S:1157
    9a40:	0afffffa 	beq	9a30 <__udivsi3+0x1e0>
/build/gcc-arm-none-eabi-Gl9kT9/gcc-arm-none-eabi-9-2019-q4/build/arm-none-eabi/arm/v5te/hard/libgcc/../../../../../../libgcc/config/arm/lib1funcs.S:1158
    9a44:	e92d4003 	push	{r0, r1, lr}
/build/gcc-arm-none-eabi-Gl9kT9/gcc-arm-none-eabi-9-2019-q4/build/arm-none-eabi/arm/v5te/hard/libgcc/../../../../../../libgcc/config/arm/lib1funcs.S:1159
    9a48:	ebffff80 	bl	9850 <__udivsi3>
/build/gcc-arm-none-eabi-Gl9kT9/gcc-arm-none-eabi-9-2019-q4/build/arm-none-eabi/arm/v5te/hard/libgcc/../../../../../../libgcc/config/arm/lib1funcs.S:1160
    9a4c:	e8bd4006 	pop	{r1, r2, lr}
/build/gcc-arm-none-eabi-Gl9kT9/gcc-arm-none-eabi-9-2019-q4/build/arm-none-eabi/arm/v5te/hard/libgcc/../../../../../../libgcc/config/arm/lib1funcs.S:1161
    9a50:	e0030092 	mul	r3, r2, r0
/build/gcc-arm-none-eabi-Gl9kT9/gcc-arm-none-eabi-9-2019-q4/build/arm-none-eabi/arm/v5te/hard/libgcc/../../../../../../libgcc/config/arm/lib1funcs.S:1162
    9a54:	e0411003 	sub	r1, r1, r3
/build/gcc-arm-none-eabi-Gl9kT9/gcc-arm-none-eabi-9-2019-q4/build/arm-none-eabi/arm/v5te/hard/libgcc/../../../../../../libgcc/config/arm/lib1funcs.S:1163
    9a58:	e12fff1e 	bx	lr

00009a5c <__aeabi_idiv0>:
__aeabi_ldiv0():
/build/gcc-arm-none-eabi-Gl9kT9/gcc-arm-none-eabi-9-2019-q4/build/arm-none-eabi/arm/v5te/hard/libgcc/../../../../../../libgcc/config/arm/lib1funcs.S:1461
    9a5c:	e12fff1e 	bx	lr
